Component: ARM Compiler 5.06 update 6 (build 750) Tool: armlink [4d35ed]

==============================================================================

Section Cross References

    startup_stm32f10x_hd.o(RESET) refers to startup_stm32f10x_hd.o(STACK) for __initial_sp
    startup_stm32f10x_hd.o(RESET) refers to startup_stm32f10x_hd.o(.text) for Reset_Handler
    startup_stm32f10x_hd.o(RESET) refers to stm32f10x_it.o(i.NMI_Handler) for NMI_Handler
    startup_stm32f10x_hd.o(RESET) refers to context_rvds.o(.text) for HardFault_Handler
    startup_stm32f10x_hd.o(RESET) refers to stm32f10x_it.o(i.MemManage_Handler) for MemManage_Handler
    startup_stm32f10x_hd.o(RESET) refers to stm32f10x_it.o(i.BusFault_Handler) for BusFault_Handler
    startup_stm32f10x_hd.o(RESET) refers to stm32f10x_it.o(i.UsageFault_Handler) for UsageFault_Handler
    startup_stm32f10x_hd.o(RESET) refers to stm32f10x_it.o(i.SVC_Handler) for SVC_Handler
    startup_stm32f10x_hd.o(RESET) refers to stm32f10x_it.o(i.DebugMon_Handler) for DebugMon_Handler
    startup_stm32f10x_hd.o(RESET) refers to board.o(i.SysTick_Handler) for SysTick_Handler
    startup_stm32f10x_hd.o(RESET) refers to stm32f10x_it.o(i.EXTI0_IRQHandler) for EXTI0_IRQHandler
    startup_stm32f10x_hd.o(RESET) refers to stm32f10x_it.o(i.TIM2_IRQHandler) for TIM2_IRQHandler
    startup_stm32f10x_hd.o(RESET) refers to usart.o(i.USART1_IRQHandler) for USART1_IRQHandler
    startup_stm32f10x_hd.o(RESET) refers to usart2.o(i.USART2_IRQHandler) for USART2_IRQHandler
    startup_stm32f10x_hd.o(RESET) refers to usart3.o(i.USART3_IRQHandler) for USART3_IRQHandler
    startup_stm32f10x_hd.o(RESET) refers to stm32f10x_it.o(i.EXTI15_10_IRQHandler) for EXTI15_10_IRQHandler
    startup_stm32f10x_hd.o(RESET) refers to uart4.o(i.UART4_IRQHandler) for UART4_IRQHandler
    startup_stm32f10x_hd.o(RESET) refers to uart5.o(i.UART5_IRQHandler) for UART5_IRQHandler
    startup_stm32f10x_hd.o(RESET) refers to timer_mq2.o(i.TIM7_IRQHandler) for TIM7_IRQHandler
    startup_stm32f10x_hd.o(.text) refers to system_stm32f10x.o(i.SystemInit) for SystemInit
    startup_stm32f10x_hd.o(.text) refers to entry.o(.ARM.Collect$$$$00000000) for __main
    system_stm32f10x.o(i.SetSysClock) refers to system_stm32f10x.o(i.SetSysClockTo72) for SetSysClockTo72
    system_stm32f10x.o(i.SystemCoreClockUpdate) refers to system_stm32f10x.o(.data) for SystemCoreClock
    system_stm32f10x.o(i.SystemInit) refers to system_stm32f10x.o(i.SetSysClock) for SetSysClock
    stm32f10x_adc.o(i.ADC_DeInit) refers to stm32f10x_rcc.o(i.RCC_APB2PeriphResetCmd) for RCC_APB2PeriphResetCmd
    stm32f10x_bkp.o(i.BKP_DeInit) refers to stm32f10x_rcc.o(i.RCC_BackupResetCmd) for RCC_BackupResetCmd
    stm32f10x_can.o(i.CAN_DeInit) refers to stm32f10x_rcc.o(i.RCC_APB1PeriphResetCmd) for RCC_APB1PeriphResetCmd
    stm32f10x_can.o(i.CAN_GetITStatus) refers to stm32f10x_can.o(i.CheckITStatus) for CheckITStatus
    stm32f10x_cec.o(i.CEC_DeInit) refers to stm32f10x_rcc.o(i.RCC_APB1PeriphResetCmd) for RCC_APB1PeriphResetCmd
    stm32f10x_dac.o(i.DAC_DeInit) refers to stm32f10x_rcc.o(i.RCC_APB1PeriphResetCmd) for RCC_APB1PeriphResetCmd
    stm32f10x_flash.o(i.FLASH_EnableWriteProtection) refers to stm32f10x_flash.o(i.FLASH_WaitForLastOperation) for FLASH_WaitForLastOperation
    stm32f10x_flash.o(i.FLASH_EraseAllBank1Pages) refers to stm32f10x_flash.o(i.FLASH_WaitForLastBank1Operation) for FLASH_WaitForLastBank1Operation
    stm32f10x_flash.o(i.FLASH_EraseAllPages) refers to stm32f10x_flash.o(i.FLASH_WaitForLastOperation) for FLASH_WaitForLastOperation
    stm32f10x_flash.o(i.FLASH_EraseOptionBytes) refers to stm32f10x_flash.o(i.FLASH_GetReadOutProtectionStatus) for FLASH_GetReadOutProtectionStatus
    stm32f10x_flash.o(i.FLASH_EraseOptionBytes) refers to stm32f10x_flash.o(i.FLASH_WaitForLastOperation) for FLASH_WaitForLastOperation
    stm32f10x_flash.o(i.FLASH_ErasePage) refers to stm32f10x_flash.o(i.FLASH_WaitForLastOperation) for FLASH_WaitForLastOperation
    stm32f10x_flash.o(i.FLASH_ProgramHalfWord) refers to stm32f10x_flash.o(i.FLASH_WaitForLastOperation) for FLASH_WaitForLastOperation
    stm32f10x_flash.o(i.FLASH_ProgramOptionByteData) refers to stm32f10x_flash.o(i.FLASH_WaitForLastOperation) for FLASH_WaitForLastOperation
    stm32f10x_flash.o(i.FLASH_ProgramWord) refers to stm32f10x_flash.o(i.FLASH_WaitForLastOperation) for FLASH_WaitForLastOperation
    stm32f10x_flash.o(i.FLASH_ReadOutProtection) refers to stm32f10x_flash.o(i.FLASH_WaitForLastOperation) for FLASH_WaitForLastOperation
    stm32f10x_flash.o(i.FLASH_UserOptionByteConfig) refers to stm32f10x_flash.o(i.FLASH_WaitForLastOperation) for FLASH_WaitForLastOperation
    stm32f10x_flash.o(i.FLASH_WaitForLastBank1Operation) refers to stm32f10x_flash.o(i.FLASH_GetBank1Status) for FLASH_GetBank1Status
    stm32f10x_flash.o(i.FLASH_WaitForLastOperation) refers to stm32f10x_flash.o(i.FLASH_GetBank1Status) for FLASH_GetBank1Status
    stm32f10x_gpio.o(i.GPIO_AFIODeInit) refers to stm32f10x_rcc.o(i.RCC_APB2PeriphResetCmd) for RCC_APB2PeriphResetCmd
    stm32f10x_gpio.o(i.GPIO_DeInit) refers to stm32f10x_rcc.o(i.RCC_APB2PeriphResetCmd) for RCC_APB2PeriphResetCmd
    stm32f10x_i2c.o(i.I2C_DeInit) refers to stm32f10x_rcc.o(i.RCC_APB1PeriphResetCmd) for RCC_APB1PeriphResetCmd
    stm32f10x_i2c.o(i.I2C_Init) refers to stm32f10x_rcc.o(i.RCC_GetClocksFreq) for RCC_GetClocksFreq
    stm32f10x_pwr.o(i.PWR_DeInit) refers to stm32f10x_rcc.o(i.RCC_APB1PeriphResetCmd) for RCC_APB1PeriphResetCmd
    stm32f10x_rcc.o(i.RCC_GetClocksFreq) refers to stm32f10x_rcc.o(.data) for APBAHBPrescTable
    stm32f10x_rcc.o(i.RCC_WaitForHSEStartUp) refers to stm32f10x_rcc.o(i.RCC_GetFlagStatus) for RCC_GetFlagStatus
    stm32f10x_rtc.o(i.RTC_SetAlarm) refers to stm32f10x_rtc.o(i.RTC_EnterConfigMode) for RTC_EnterConfigMode
    stm32f10x_rtc.o(i.RTC_SetAlarm) refers to stm32f10x_rtc.o(i.RTC_ExitConfigMode) for RTC_ExitConfigMode
    stm32f10x_rtc.o(i.RTC_SetCounter) refers to stm32f10x_rtc.o(i.RTC_EnterConfigMode) for RTC_EnterConfigMode
    stm32f10x_rtc.o(i.RTC_SetCounter) refers to stm32f10x_rtc.o(i.RTC_ExitConfigMode) for RTC_ExitConfigMode
    stm32f10x_rtc.o(i.RTC_SetPrescaler) refers to stm32f10x_rtc.o(i.RTC_EnterConfigMode) for RTC_EnterConfigMode
    stm32f10x_rtc.o(i.RTC_SetPrescaler) refers to stm32f10x_rtc.o(i.RTC_ExitConfigMode) for RTC_ExitConfigMode
    stm32f10x_spi.o(i.I2S_Init) refers to stm32f10x_rcc.o(i.RCC_GetClocksFreq) for RCC_GetClocksFreq
    stm32f10x_spi.o(i.SPI_I2S_DeInit) refers to stm32f10x_rcc.o(i.RCC_APB2PeriphResetCmd) for RCC_APB2PeriphResetCmd
    stm32f10x_spi.o(i.SPI_I2S_DeInit) refers to stm32f10x_rcc.o(i.RCC_APB1PeriphResetCmd) for RCC_APB1PeriphResetCmd
    stm32f10x_tim.o(i.TIM_DeInit) refers to stm32f10x_rcc.o(i.RCC_APB2PeriphResetCmd) for RCC_APB2PeriphResetCmd
    stm32f10x_tim.o(i.TIM_DeInit) refers to stm32f10x_rcc.o(i.RCC_APB1PeriphResetCmd) for RCC_APB1PeriphResetCmd
    stm32f10x_tim.o(i.TIM_ETRClockMode1Config) refers to stm32f10x_tim.o(i.TIM_ETRConfig) for TIM_ETRConfig
    stm32f10x_tim.o(i.TIM_ETRClockMode2Config) refers to stm32f10x_tim.o(i.TIM_ETRConfig) for TIM_ETRConfig
    stm32f10x_tim.o(i.TIM_ICInit) refers to stm32f10x_tim.o(i.TI1_Config) for TI1_Config
    stm32f10x_tim.o(i.TIM_ICInit) refers to stm32f10x_tim.o(i.TIM_SetIC1Prescaler) for TIM_SetIC1Prescaler
    stm32f10x_tim.o(i.TIM_ICInit) refers to stm32f10x_tim.o(i.TI2_Config) for TI2_Config
    stm32f10x_tim.o(i.TIM_ICInit) refers to stm32f10x_tim.o(i.TIM_SetIC2Prescaler) for TIM_SetIC2Prescaler
    stm32f10x_tim.o(i.TIM_ICInit) refers to stm32f10x_tim.o(i.TI3_Config) for TI3_Config
    stm32f10x_tim.o(i.TIM_ICInit) refers to stm32f10x_tim.o(i.TIM_SetIC3Prescaler) for TIM_SetIC3Prescaler
    stm32f10x_tim.o(i.TIM_ICInit) refers to stm32f10x_tim.o(i.TI4_Config) for TI4_Config
    stm32f10x_tim.o(i.TIM_ICInit) refers to stm32f10x_tim.o(i.TIM_SetIC4Prescaler) for TIM_SetIC4Prescaler
    stm32f10x_tim.o(i.TIM_ITRxExternalClockConfig) refers to stm32f10x_tim.o(i.TIM_SelectInputTrigger) for TIM_SelectInputTrigger
    stm32f10x_tim.o(i.TIM_PWMIConfig) refers to stm32f10x_tim.o(i.TI1_Config) for TI1_Config
    stm32f10x_tim.o(i.TIM_PWMIConfig) refers to stm32f10x_tim.o(i.TIM_SetIC1Prescaler) for TIM_SetIC1Prescaler
    stm32f10x_tim.o(i.TIM_PWMIConfig) refers to stm32f10x_tim.o(i.TI2_Config) for TI2_Config
    stm32f10x_tim.o(i.TIM_PWMIConfig) refers to stm32f10x_tim.o(i.TIM_SetIC2Prescaler) for TIM_SetIC2Prescaler
    stm32f10x_tim.o(i.TIM_TIxExternalClockConfig) refers to stm32f10x_tim.o(i.TI2_Config) for TI2_Config
    stm32f10x_tim.o(i.TIM_TIxExternalClockConfig) refers to stm32f10x_tim.o(i.TI1_Config) for TI1_Config
    stm32f10x_tim.o(i.TIM_TIxExternalClockConfig) refers to stm32f10x_tim.o(i.TIM_SelectInputTrigger) for TIM_SelectInputTrigger
    stm32f10x_usart.o(i.USART_DeInit) refers to stm32f10x_rcc.o(i.RCC_APB2PeriphResetCmd) for RCC_APB2PeriphResetCmd
    stm32f10x_usart.o(i.USART_DeInit) refers to stm32f10x_rcc.o(i.RCC_APB1PeriphResetCmd) for RCC_APB1PeriphResetCmd
    stm32f10x_usart.o(i.USART_Init) refers to stm32f10x_rcc.o(i.RCC_GetClocksFreq) for RCC_GetClocksFreq
    stm32f10x_wwdg.o(i.WWDG_DeInit) refers to stm32f10x_rcc.o(i.RCC_APB1PeriphResetCmd) for RCC_APB1PeriphResetCmd
    board.o(i.SysTick_Handler) refers to irq.o(i.rt_interrupt_enter) for rt_interrupt_enter
    board.o(i.SysTick_Handler) refers to clock.o(i.rt_tick_increase) for rt_tick_increase
    board.o(i.SysTick_Handler) refers to irq.o(i.rt_interrupt_leave) for rt_interrupt_leave
    board.o(i.rt_heap_begin_get) refers to board.o(.bss) for rt_heap
    board.o(i.rt_heap_end_get) refers to board.o(.bss) for rt_heap
    board.o(i.rt_hw_board_init) refers to deal_with.o(i.Init_myself) for Init_myself
    board.o(i.rt_hw_board_init) refers to components.o(i.rt_components_board_init) for rt_components_board_init
    board.o(i.rt_hw_board_init) refers to board.o(i.rt_heap_end_get) for rt_heap_end_get
    board.o(i.rt_hw_board_init) refers to board.o(i.rt_heap_begin_get) for rt_heap_begin_get
    board.o(i.rt_hw_board_init) refers to mem.o(i.rt_system_heap_init) for rt_system_heap_init
    board.o(i.rt_hw_board_init) refers to system_stm32f10x.o(.data) for SystemCoreClock
    board.o(i.rt_hw_console_output) refers to scheduler.o(i.rt_enter_critical) for rt_enter_critical
    board.o(i.rt_hw_console_output) refers to stm32f10x_usart.o(i.USART_SendData) for USART_SendData
    board.o(i.rt_hw_console_output) refers to stm32f10x_usart.o(i.USART_GetFlagStatus) for USART_GetFlagStatus
    board.o(i.rt_hw_console_output) refers to scheduler.o(i.rt_exit_critical) for rt_exit_critical
    main.o(i.communication_thread_entry) refers to ml302.o(i.ML302_Init) for ML302_Init
    main.o(i.communication_thread_entry) refers to ipc.o(i.rt_sem_release) for rt_sem_release
    main.o(i.communication_thread_entry) refers to ipc.o(i.rt_sem_take) for rt_sem_take
    main.o(i.communication_thread_entry) refers to deal_with.o(i.Upload_Receive_Data_STM32) for Upload_Receive_Data_STM32
    main.o(i.communication_thread_entry) refers to deal_with.o(i.Upload_Receive_Data_wechat) for Upload_Receive_Data_wechat
    main.o(i.communication_thread_entry) refers to main.o(.data) for communication_sem
    main.o(i.main) refers to ipc.o(i.rt_sem_create) for rt_sem_create
    main.o(i.main) refers to kservice.o(i.rt_kprintf) for rt_kprintf
    main.o(i.main) refers to thread.o(i.rt_thread_create) for rt_thread_create
    main.o(i.main) refers to thread.o(i.rt_thread_startup) for rt_thread_startup
    main.o(i.main) refers to main.o(.data) for communication_sem
    main.o(i.main) refers to main.o(i.communication_thread_entry) for communication_thread_entry
    main.o(i.main) refers to main.o(i.sensor_thread_entry) for sensor_thread_entry
    main.o(i.main) refers to main.o(i.recognition_thread_entry) for recognition_thread_entry
    main.o(i.recognition_thread_entry) refers to ipc.o(i.rt_sem_take) for rt_sem_take
    main.o(i.recognition_thread_entry) refers to deal_with.o(i.Face_recognition_myself) for Face_recognition_myself
    main.o(i.recognition_thread_entry) refers to main.o(.data) for recognition_sem
    main.o(i.sensor_thread_entry) refers to ipc.o(i.rt_sem_take) for rt_sem_take
    main.o(i.sensor_thread_entry) refers to deal_with.o(i.Getting_Data_myself) for Getting_Data_myself
    main.o(i.sensor_thread_entry) refers to deal_with.o(i.OSD_myself) for OSD_myself
    main.o(i.sensor_thread_entry) refers to deal_with.o(i.printf_myself) for printf_myself
    main.o(i.sensor_thread_entry) refers to main.o(.data) for sensor_sem
    stm32f10x_it.o(i.EXTI0_IRQHandler) refers to stm32f10x_exti.o(i.EXTI_GetITStatus) for EXTI_GetITStatus
    stm32f10x_it.o(i.EXTI0_IRQHandler) refers to stm32f10x_exti.o(i.EXTI_ClearITPendingBit) for EXTI_ClearITPendingBit
    stm32f10x_it.o(i.EXTI0_IRQHandler) refers to deal_with.o(.data) for KEY1_flag
    stm32f10x_it.o(i.EXTI15_10_IRQHandler) refers to stm32f10x_exti.o(i.EXTI_GetITStatus) for EXTI_GetITStatus
    stm32f10x_it.o(i.EXTI15_10_IRQHandler) refers to stm32f10x_exti.o(i.EXTI_ClearITPendingBit) for EXTI_ClearITPendingBit
    stm32f10x_it.o(i.EXTI15_10_IRQHandler) refers to deal_with.o(.data) for KEY2_flag
    stm32f10x_it.o(i.TIM2_IRQHandler) refers to stm32f10x_tim.o(i.TIM_GetITStatus) for TIM_GetITStatus
    stm32f10x_it.o(i.TIM2_IRQHandler) refers to stm32f10x_tim.o(i.TIM_ClearITPendingBit) for TIM_ClearITPendingBit
    stm32f10x_it.o(i.TIM2_IRQHandler) refers to ipc.o(i.rt_sem_release) for rt_sem_release
    stm32f10x_it.o(i.TIM2_IRQHandler) refers to ml302.o(.data) for time_rec
    stm32f10x_it.o(i.TIM2_IRQHandler) refers to main.o(.data) for recognition_sem
    deal_with.o(i.Calculate_SGP30) refers to sgp30.o(i.SGP30_Write) for SGP30_Write
    deal_with.o(i.Calculate_SGP30) refers to sgp30.o(i.SGP30_Read) for SGP30_Read
    deal_with.o(i.Calculate_SHT30) refers to sht30.o(i.SHT30_read_result) for SHT30_read_result
    deal_with.o(i.Calculate_SHT30) refers to ffltui.o(.text) for __aeabi_ui2f
    deal_with.o(i.Calculate_SHT30) refers to f2d.o(.text) for __aeabi_f2d
    deal_with.o(i.Calculate_SHT30) refers to dmul.o(.text) for __aeabi_dmul
    deal_with.o(i.Calculate_SHT30) refers to ddiv.o(.text) for __aeabi_ddiv
    deal_with.o(i.Calculate_SHT30) refers to dadd.o(.text) for __aeabi_dsub
    deal_with.o(i.Calculate_SHT30) refers to d2f.o(.text) for __aeabi_d2f
    deal_with.o(i.Calculate_SHT30) refers to cfrcmple.o(.text) for __aeabi_cfrcmple
    deal_with.o(i.Calculate_SHT30) refers to cfcmple.o(.text) for __aeabi_cfcmple
    deal_with.o(i.Face_recognition_myself) refers to hlk_tx510.o(i.HLK_TX510_Enroll_FaceID) for HLK_TX510_Enroll_FaceID
    deal_with.o(i.Face_recognition_myself) refers to hlk_tx510.o(i.Dealwith_HLK_TX510) for Dealwith_HLK_TX510
    deal_with.o(i.Face_recognition_myself) refers to delay.o(i.delay_s) for delay_s
    deal_with.o(i.Face_recognition_myself) refers to hlk_tx510.o(i.HLK_TX510_DeleteAll_FaceID) for HLK_TX510_DeleteAll_FaceID
    deal_with.o(i.Face_recognition_myself) refers to hlk_tx510.o(i.HLK_TX510_Identify_FaceID) for HLK_TX510_Identify_FaceID
    deal_with.o(i.Face_recognition_myself) refers to wdg.o(i.IWDG_Feed) for IWDG_Feed
    deal_with.o(i.Face_recognition_myself) refers to deal_with.o(.data) for KEY1_flag
    deal_with.o(i.Getting_Data_myself) refers to deal_with.o(i.deal_with) for deal_with
    deal_with.o(i.Getting_Data_myself) refers to wdg.o(i.IWDG_Feed) for IWDG_Feed
    deal_with.o(i.Getting_Data_myself) refers to deal_with.o(.data) for SENSOR
    deal_with.o(i.Init_myself) refers to usart.o(i.uart_init) for uart_init
    deal_with.o(i.Init_myself) refers to delay.o(i.delay_init) for delay_init
    deal_with.o(i.Init_myself) refers to misc.o(i.NVIC_PriorityGroupConfig) for NVIC_PriorityGroupConfig
    deal_with.o(i.Init_myself) refers to usart3.o(i.USART3_Init) for USART3_Init
    deal_with.o(i.Init_myself) refers to key_exti.o(i.EXTI_Key_Config) for EXTI_Key_Config
    deal_with.o(i.Init_myself) refers to led_test.o(i.LED_GPIO_Config) for LED_GPIO_Config
    deal_with.o(i.Init_myself) refers to gp2y10_adc.o(i.GP2Y_ADC_Init) for GP2Y_ADC_Init
    deal_with.o(i.Init_myself) refers to mq2_adc.o(i.MQ2_ADC_Init) for MQ2_ADC_Init
    deal_with.o(i.Init_myself) refers to timer_mq2.o(i.TIM7_Init) for TIM7_Init
    deal_with.o(i.Init_myself) refers to oled.o(i.OLED_Init) for OLED_Init
    deal_with.o(i.Init_myself) refers to oled.o(i.OLED_Clear) for OLED_Clear
    deal_with.o(i.Init_myself) refers to sht30.o(i.SHT30_Init) for SHT30_Init
    deal_with.o(i.Init_myself) refers to sgp30.o(i.SGP30_Init) for SGP30_Init
    deal_with.o(i.Init_myself) refers to generaltim.o(i.GENERAL_TIM_Init) for GENERAL_TIM_Init
    deal_with.o(i.Init_myself) refers to uart5.o(i.UART5_Config) for UART5_Config
    deal_with.o(i.Init_myself) refers to uart4.o(i.uart4_init) for uart4_init
    deal_with.o(i.Init_myself) refers to usart2.o(i.uart2_init) for uart2_init
    deal_with.o(i.Init_myself) refers to delay.o(i.delay_ms) for delay_ms
    deal_with.o(i.Init_myself) refers to wdg.o(i.IWDG_Init) for IWDG_Init
    deal_with.o(i.Init_myself) refers to deal_with.o(.data) for NVICPriority_Structure
    deal_with.o(i.OSD_myself) refers to oled.o(i.OLED_Clear) for OLED_Clear
    deal_with.o(i.OSD_myself) refers to oled.o(i.OLED_ShowNum) for OLED_ShowNum
    deal_with.o(i.OSD_myself) refers to oled.o(i.OLED_Showdecimal) for OLED_Showdecimal
    deal_with.o(i.OSD_myself) refers to wdg.o(i.IWDG_Feed) for IWDG_Feed
    deal_with.o(i.OSD_myself) refers to deal_with.o(.data) for STM32
    deal_with.o(i.Upload_Receive_Data_STM32) refers to ml302.o(i.ML302_MQTTPUBMessage_STM32) for ML302_MQTTPUBMessage_STM32
    deal_with.o(i.Upload_Receive_Data_STM32) refers to ml302.o(i.ML302_MQTT_RECData) for ML302_MQTT_RECData
    deal_with.o(i.Upload_Receive_Data_STM32) refers to wdg.o(i.IWDG_Feed) for IWDG_Feed
    deal_with.o(i.Upload_Receive_Data_STM32) refers to deal_with.o(.data) for STM32
    deal_with.o(i.Upload_Receive_Data_wechat) refers to ml302.o(i.ML302_MQTTPUBMessage_WeChat) for ML302_MQTTPUBMessage_WeChat
    deal_with.o(i.Upload_Receive_Data_wechat) refers to ml302.o(i.ML302_MQTT_RECData) for ML302_MQTT_RECData
    deal_with.o(i.Upload_Receive_Data_wechat) refers to wdg.o(i.IWDG_Feed) for IWDG_Feed
    deal_with.o(i.Upload_Receive_Data_wechat) refers to deal_with.o(.data) for WeChat
    deal_with.o(i.Warning_contorl_myself) refers to f2d.o(.text) for __aeabi_f2d
    deal_with.o(i.Warning_contorl_myself) refers to cdcmple.o(.text) for __aeabi_cdcmple
    deal_with.o(i.Warning_contorl_myself) refers to cdrcmple.o(.text) for __aeabi_cdrcmple
    deal_with.o(i.Warning_contorl_myself) refers to ml302.o(i.ML302_SendMessage) for ML302_SendMessage
    deal_with.o(i.Warning_contorl_myself) refers to delay.o(i.delay_ms) for delay_ms
    deal_with.o(i.Warning_contorl_myself) refers to printfa.o(i.__0printf) for __2printf
    deal_with.o(i.Warning_contorl_myself) refers to usart2.o(i.Clear_Buffer) for Clear_Buffer
    deal_with.o(i.Warning_contorl_myself) refers to strstr.o(.text) for strstr
    deal_with.o(i.Warning_contorl_myself) refers to usart.o(i.Uart1_SendStr) for Uart1_SendStr
    deal_with.o(i.Warning_contorl_myself) refers to stm32f10x_gpio.o(i.GPIO_ResetBits) for GPIO_ResetBits
    deal_with.o(i.Warning_contorl_myself) refers to delay.o(i.delay_s) for delay_s
    deal_with.o(i.Warning_contorl_myself) refers to stm32f10x_gpio.o(i.GPIO_SetBits) for GPIO_SetBits
    deal_with.o(i.Warning_contorl_myself) refers to deal_with.o(.data) for WeChat
    deal_with.o(i.Warning_contorl_myself) refers to usart2.o(.bss) for RxBuffer
    deal_with.o(i.deal_with) refers to deal_with.o(i.Calculate_SGP30) for Calculate_SGP30
    deal_with.o(i.deal_with) refers to deal_with.o(i.Calculate_SHT30) for Calculate_SHT30
    deal_with.o(i.deal_with) refers to gp2y10_adc.o(i.GP2Y_GetDens) for GP2Y_GetDens
    deal_with.o(i.deal_with) refers to mq2_adc.o(i.MQ2_GetPPM) for MQ2_GetPPM
    deal_with.o(i.deal_with) refers to stm32f10x_gpio.o(i.GPIO_ReadInputDataBit) for GPIO_ReadInputDataBit
    deal_with.o(i.deal_with) refers to deal_with.o(.data) for SENSOR
    deal_with.o(i.deal_with) refers to hlk_ld2410c.o(.bss) for Detection_Target_LD2410C
    deal_with.o(i.printf_myself) refers to kservice.o(i.rt_kprintf) for rt_kprintf
    deal_with.o(i.printf_myself) refers to f2d.o(.text) for __aeabi_f2d
    deal_with.o(i.printf_myself) refers to deal_with.o(.data) for STM32
    beep.o(i.BEEP_GPIO_Config) refers to stm32f10x_rcc.o(i.RCC_APB2PeriphClockCmd) for RCC_APB2PeriphClockCmd
    beep.o(i.BEEP_GPIO_Config) refers to stm32f10x_gpio.o(i.GPIO_Init) for GPIO_Init
    beep.o(i.BEEP_GPIO_Config) refers to stm32f10x_gpio.o(i.GPIO_ResetBits) for GPIO_ResetBits
    fire.o(i.FIRE_CONFIG) refers to stm32f10x_rcc.o(i.RCC_APB2PeriphClockCmd) for RCC_APB2PeriphClockCmd
    fire.o(i.FIRE_CONFIG) refers to stm32f10x_gpio.o(i.GPIO_Init) for GPIO_Init
    key_exti.o(i.EXTI_Key_Config) refers to stm32f10x_rcc.o(i.RCC_APB2PeriphClockCmd) for RCC_APB2PeriphClockCmd
    key_exti.o(i.EXTI_Key_Config) refers to key_exti.o(i.NVIC_Configuration) for NVIC_Configuration
    key_exti.o(i.EXTI_Key_Config) refers to stm32f10x_gpio.o(i.GPIO_Init) for GPIO_Init
    key_exti.o(i.EXTI_Key_Config) refers to stm32f10x_gpio.o(i.GPIO_EXTILineConfig) for GPIO_EXTILineConfig
    key_exti.o(i.EXTI_Key_Config) refers to stm32f10x_exti.o(i.EXTI_Init) for EXTI_Init
    key_exti.o(i.NVIC_Configuration) refers to misc.o(i.NVIC_PriorityGroupConfig) for NVIC_PriorityGroupConfig
    key_exti.o(i.NVIC_Configuration) refers to misc.o(i.NVIC_Init) for NVIC_Init
    led_test.o(i.LED_GPIO_Config) refers to stm32f10x_rcc.o(i.RCC_APB2PeriphClockCmd) for RCC_APB2PeriphClockCmd
    led_test.o(i.LED_GPIO_Config) refers to stm32f10x_gpio.o(i.GPIO_Init) for GPIO_Init
    led_test.o(i.LED_GPIO_Config) refers to stm32f10x_gpio.o(i.GPIO_SetBits) for GPIO_SetBits
    malloc.o(i.my_mem_free) refers to malloc.o(.data) for mallco_dev
    malloc.o(i.my_mem_free) refers to malloc.o(.constdata) for memsize
    malloc.o(i.my_mem_init) refers to malloc.o(i.mymemset) for mymemset
    malloc.o(i.my_mem_init) refers to malloc.o(.constdata) for memtblsize
    malloc.o(i.my_mem_init) refers to malloc.o(.data) for mallco_dev
    malloc.o(i.my_mem_malloc) refers to malloc.o(.data) for mallco_dev
    malloc.o(i.my_mem_malloc) refers to malloc.o(.constdata) for memblksize
    malloc.o(i.my_mem_perused) refers to malloc.o(.data) for mallco_dev
    malloc.o(i.my_mem_perused) refers to malloc.o(.constdata) for memtblsize
    malloc.o(i.myfree) refers to malloc.o(i.my_mem_free) for my_mem_free
    malloc.o(i.myfree) refers to malloc.o(.data) for mallco_dev
    malloc.o(i.mymalloc) refers to malloc.o(i.my_mem_malloc) for my_mem_malloc
    malloc.o(i.mymalloc) refers to malloc.o(.data) for mallco_dev
    malloc.o(i.myrealloc) refers to malloc.o(i.my_mem_malloc) for my_mem_malloc
    malloc.o(i.myrealloc) refers to malloc.o(i.mymemcpy) for mymemcpy
    malloc.o(i.myrealloc) refers to malloc.o(i.myfree) for myfree
    malloc.o(i.myrealloc) refers to malloc.o(.data) for mallco_dev
    malloc.o(.data) refers to malloc.o(i.my_mem_init) for my_mem_init
    malloc.o(.data) refers to malloc.o(i.my_mem_perused) for my_mem_perused
    malloc.o(.data) refers to malloc.o(.bss) for mem1base
    malloc.o(.data) refers to malloc.o(.ARM.__AT_0x68000000) for mem2base
    malloc.o(.data) refers to malloc.o(.ARM.__AT_0x680F0000) for mem2mapbase
    relay.o(i.RELAY_GPIO_Config) refers to stm32f10x_rcc.o(i.RCC_APB2PeriphClockCmd) for RCC_APB2PeriphClockCmd
    relay.o(i.RELAY_GPIO_Config) refers to stm32f10x_gpio.o(i.GPIO_Init) for GPIO_Init
    relay.o(i.RELAY_GPIO_Config) refers to stm32f10x_gpio.o(i.GPIO_SetBits) for GPIO_SetBits
    wdg.o(i.IWDG_Feed) refers to stm32f10x_iwdg.o(i.IWDG_ReloadCounter) for IWDG_ReloadCounter
    wdg.o(i.IWDG_Init) refers to stm32f10x_iwdg.o(i.IWDG_WriteAccessCmd) for IWDG_WriteAccessCmd
    wdg.o(i.IWDG_Init) refers to stm32f10x_iwdg.o(i.IWDG_SetPrescaler) for IWDG_SetPrescaler
    wdg.o(i.IWDG_Init) refers to stm32f10x_iwdg.o(i.IWDG_SetReload) for IWDG_SetReload
    wdg.o(i.IWDG_Init) refers to stm32f10x_iwdg.o(i.IWDG_ReloadCounter) for IWDG_ReloadCounter
    wdg.o(i.IWDG_Init) refers to stm32f10x_iwdg.o(i.IWDG_Enable) for IWDG_Enable
    clock.o(i.rt_tick_get) refers to clock.o(.data) for rt_tick
    clock.o(i.rt_tick_increase) refers to thread.o(i.rt_thread_self) for rt_thread_self
    clock.o(i.rt_tick_increase) refers to thread.o(i.rt_thread_yield) for rt_thread_yield
    clock.o(i.rt_tick_increase) refers to timer.o(i.rt_timer_check) for rt_timer_check
    clock.o(i.rt_tick_increase) refers to clock.o(.data) for rt_tick
    clock.o(i.rt_tick_set) refers to context_rvds.o(.text) for rt_hw_interrupt_disable
    clock.o(i.rt_tick_set) refers to clock.o(.data) for rt_tick
    components.o(i.$Sub$$main) refers to context_rvds.o(.text) for rt_hw_interrupt_disable
    components.o(i.$Sub$$main) refers to components.o(i.rtthread_startup) for rtthread_startup
    components.o(i.main_thread_entry) refers to components.o(i.rt_components_init) for rt_components_init
    components.o(i.main_thread_entry) refers to main.o(i.main) for $Super$$main
    components.o(i.rt_application_init) refers to thread.o(i.rt_thread_create) for rt_thread_create
    components.o(i.rt_application_init) refers to thread.o(i.rt_thread_startup) for rt_thread_startup
    components.o(i.rt_application_init) refers to components.o(i.main_thread_entry) for main_thread_entry
    components.o(i.rt_components_board_init) refers to components.o(.rti_fn.0.end) for __rt_init_rti_board_start
    components.o(i.rt_components_board_init) refers to components.o(.rti_fn.1.end) for __rt_init_rti_board_end
    components.o(i.rt_components_init) refers to components.o(.rti_fn.1.end) for __rt_init_rti_board_end
    components.o(i.rt_components_init) refers to components.o(.rti_fn.6.end) for __rt_init_rti_end
    components.o(i.rtthread_startup) refers to context_rvds.o(.text) for rt_hw_interrupt_disable
    components.o(i.rtthread_startup) refers to board.o(i.rt_hw_board_init) for rt_hw_board_init
    components.o(i.rtthread_startup) refers to kservice.o(i.rt_show_version) for rt_show_version
    components.o(i.rtthread_startup) refers to timer.o(i.rt_system_timer_init) for rt_system_timer_init
    components.o(i.rtthread_startup) refers to scheduler.o(i.rt_system_scheduler_init) for rt_system_scheduler_init
    components.o(i.rtthread_startup) refers to components.o(i.rt_application_init) for rt_application_init
    components.o(i.rtthread_startup) refers to timer.o(i.rt_system_timer_thread_init) for rt_system_timer_thread_init
    components.o(i.rtthread_startup) refers to idle.o(i.rt_thread_idle_init) for rt_thread_idle_init
    components.o(i.rtthread_startup) refers to scheduler.o(i.rt_system_scheduler_start) for rt_system_scheduler_start
    components.o(.rti_fn.0) refers to components.o(i.rti_start) for rti_start
    components.o(.rti_fn.0.end) refers to components.o(i.rti_board_start) for rti_board_start
    components.o(.rti_fn.1.end) refers to components.o(i.rti_board_end) for rti_board_end
    components.o(.rti_fn.6.end) refers to components.o(i.rti_end) for rti_end
    idle.o(i._has_defunct_thread) refers to scheduler.o(.data) for rt_thread_defunct
    idle.o(i.rt_thread_idle_entry) refers to idle.o(i.rt_thread_idle_excute) for rt_thread_idle_excute
    idle.o(i.rt_thread_idle_excute) refers to context_rvds.o(.text) for rt_hw_interrupt_disable
    idle.o(i.rt_thread_idle_excute) refers to idle.o(i._has_defunct_thread) for _has_defunct_thread
    idle.o(i.rt_thread_idle_excute) refers to scheduler.o(i.rt_enter_critical) for rt_enter_critical
    idle.o(i.rt_thread_idle_excute) refers to object.o(i.rt_object_is_systemobject) for rt_object_is_systemobject
    idle.o(i.rt_thread_idle_excute) refers to scheduler.o(i.rt_exit_critical) for rt_exit_critical
    idle.o(i.rt_thread_idle_excute) refers to mem.o(i.rt_free) for rt_free
    idle.o(i.rt_thread_idle_excute) refers to object.o(i.rt_object_delete) for rt_object_delete
    idle.o(i.rt_thread_idle_excute) refers to scheduler.o(.data) for rt_thread_defunct
    idle.o(i.rt_thread_idle_gethandler) refers to idle.o(.bss) for idle
    idle.o(i.rt_thread_idle_init) refers to thread.o(i.rt_thread_init) for rt_thread_init
    idle.o(i.rt_thread_idle_init) refers to thread.o(i.rt_thread_startup) for rt_thread_startup
    idle.o(i.rt_thread_idle_init) refers to idle.o(.bss) for rt_thread_stack
    idle.o(i.rt_thread_idle_init) refers to idle.o(i.rt_thread_idle_entry) for rt_thread_idle_entry
    ipc.o(i.rt_event_control) refers to context_rvds.o(.text) for rt_hw_interrupt_disable
    ipc.o(i.rt_event_control) refers to ipc.o(i.rt_ipc_list_resume_all) for rt_ipc_list_resume_all
    ipc.o(i.rt_event_control) refers to scheduler.o(i.rt_schedule) for rt_schedule
    ipc.o(i.rt_event_create) refers to object.o(i.rt_object_allocate) for rt_object_allocate
    ipc.o(i.rt_event_create) refers to ipc.o(i.rt_ipc_object_init) for rt_ipc_object_init
    ipc.o(i.rt_event_delete) refers to ipc.o(i.rt_ipc_list_resume_all) for rt_ipc_list_resume_all
    ipc.o(i.rt_event_delete) refers to object.o(i.rt_object_delete) for rt_object_delete
    ipc.o(i.rt_event_detach) refers to ipc.o(i.rt_ipc_list_resume_all) for rt_ipc_list_resume_all
    ipc.o(i.rt_event_detach) refers to object.o(i.rt_object_detach) for rt_object_detach
    ipc.o(i.rt_event_init) refers to object.o(i.rt_object_init) for rt_object_init
    ipc.o(i.rt_event_init) refers to ipc.o(i.rt_ipc_object_init) for rt_ipc_object_init
    ipc.o(i.rt_event_recv) refers to thread.o(i.rt_thread_self) for rt_thread_self
    ipc.o(i.rt_event_recv) refers to context_rvds.o(.text) for rt_hw_interrupt_disable
    ipc.o(i.rt_event_recv) refers to ipc.o(i.rt_ipc_list_suspend) for rt_ipc_list_suspend
    ipc.o(i.rt_event_recv) refers to timer.o(i.rt_timer_control) for rt_timer_control
    ipc.o(i.rt_event_recv) refers to timer.o(i.rt_timer_start) for rt_timer_start
    ipc.o(i.rt_event_recv) refers to scheduler.o(i.rt_schedule) for rt_schedule
    ipc.o(i.rt_event_send) refers to context_rvds.o(.text) for rt_hw_interrupt_disable
    ipc.o(i.rt_event_send) refers to ipc.o(i.rt_list_isempty) for rt_list_isempty
    ipc.o(i.rt_event_send) refers to thread.o(i.rt_thread_resume) for rt_thread_resume
    ipc.o(i.rt_event_send) refers to scheduler.o(i.rt_schedule) for rt_schedule
    ipc.o(i.rt_ipc_list_resume) refers to thread.o(i.rt_thread_resume) for rt_thread_resume
    ipc.o(i.rt_ipc_list_resume_all) refers to context_rvds.o(.text) for rt_hw_interrupt_disable
    ipc.o(i.rt_ipc_list_resume_all) refers to thread.o(i.rt_thread_resume) for rt_thread_resume
    ipc.o(i.rt_ipc_list_resume_all) refers to ipc.o(i.rt_list_isempty) for rt_list_isempty
    ipc.o(i.rt_ipc_list_suspend) refers to thread.o(i.rt_thread_suspend) for rt_thread_suspend
    ipc.o(i.rt_ipc_list_suspend) refers to ipc.o(i.rt_list_insert_before) for rt_list_insert_before
    ipc.o(i.rt_ipc_object_init) refers to ipc.o(i.rt_list_init) for rt_list_init
    ipc.o(i.rt_mb_control) refers to context_rvds.o(.text) for rt_hw_interrupt_disable
    ipc.o(i.rt_mb_control) refers to ipc.o(i.rt_ipc_list_resume_all) for rt_ipc_list_resume_all
    ipc.o(i.rt_mb_control) refers to scheduler.o(i.rt_schedule) for rt_schedule
    ipc.o(i.rt_mb_create) refers to object.o(i.rt_object_allocate) for rt_object_allocate
    ipc.o(i.rt_mb_create) refers to ipc.o(i.rt_ipc_object_init) for rt_ipc_object_init
    ipc.o(i.rt_mb_create) refers to mem.o(i.rt_malloc) for rt_malloc
    ipc.o(i.rt_mb_create) refers to object.o(i.rt_object_delete) for rt_object_delete
    ipc.o(i.rt_mb_create) refers to ipc.o(i.rt_list_init) for rt_list_init
    ipc.o(i.rt_mb_delete) refers to ipc.o(i.rt_ipc_list_resume_all) for rt_ipc_list_resume_all
    ipc.o(i.rt_mb_delete) refers to mem.o(i.rt_free) for rt_free
    ipc.o(i.rt_mb_delete) refers to object.o(i.rt_object_delete) for rt_object_delete
    ipc.o(i.rt_mb_detach) refers to ipc.o(i.rt_ipc_list_resume_all) for rt_ipc_list_resume_all
    ipc.o(i.rt_mb_detach) refers to object.o(i.rt_object_detach) for rt_object_detach
    ipc.o(i.rt_mb_init) refers to object.o(i.rt_object_init) for rt_object_init
    ipc.o(i.rt_mb_init) refers to ipc.o(i.rt_ipc_object_init) for rt_ipc_object_init
    ipc.o(i.rt_mb_init) refers to ipc.o(i.rt_list_init) for rt_list_init
    ipc.o(i.rt_mb_recv) refers to thread.o(i.rt_thread_self) for rt_thread_self
    ipc.o(i.rt_mb_recv) refers to context_rvds.o(.text) for rt_hw_interrupt_disable
    ipc.o(i.rt_mb_recv) refers to ipc.o(i.rt_ipc_list_suspend) for rt_ipc_list_suspend
    ipc.o(i.rt_mb_recv) refers to clock.o(i.rt_tick_get) for rt_tick_get
    ipc.o(i.rt_mb_recv) refers to timer.o(i.rt_timer_control) for rt_timer_control
    ipc.o(i.rt_mb_recv) refers to timer.o(i.rt_timer_start) for rt_timer_start
    ipc.o(i.rt_mb_recv) refers to scheduler.o(i.rt_schedule) for rt_schedule
    ipc.o(i.rt_mb_recv) refers to ipc.o(i.rt_list_isempty) for rt_list_isempty
    ipc.o(i.rt_mb_recv) refers to ipc.o(i.rt_ipc_list_resume) for rt_ipc_list_resume
    ipc.o(i.rt_mb_send) refers to ipc.o(i.rt_mb_send_wait) for rt_mb_send_wait
    ipc.o(i.rt_mb_send_wait) refers to thread.o(i.rt_thread_self) for rt_thread_self
    ipc.o(i.rt_mb_send_wait) refers to context_rvds.o(.text) for rt_hw_interrupt_disable
    ipc.o(i.rt_mb_send_wait) refers to ipc.o(i.rt_ipc_list_suspend) for rt_ipc_list_suspend
    ipc.o(i.rt_mb_send_wait) refers to clock.o(i.rt_tick_get) for rt_tick_get
    ipc.o(i.rt_mb_send_wait) refers to timer.o(i.rt_timer_control) for rt_timer_control
    ipc.o(i.rt_mb_send_wait) refers to timer.o(i.rt_timer_start) for rt_timer_start
    ipc.o(i.rt_mb_send_wait) refers to scheduler.o(i.rt_schedule) for rt_schedule
    ipc.o(i.rt_mb_send_wait) refers to ipc.o(i.rt_list_isempty) for rt_list_isempty
    ipc.o(i.rt_mb_send_wait) refers to ipc.o(i.rt_ipc_list_resume) for rt_ipc_list_resume
    ipc.o(i.rt_mq_control) refers to context_rvds.o(.text) for rt_hw_interrupt_disable
    ipc.o(i.rt_mq_control) refers to ipc.o(i.rt_ipc_list_resume_all) for rt_ipc_list_resume_all
    ipc.o(i.rt_mq_control) refers to scheduler.o(i.rt_schedule) for rt_schedule
    ipc.o(i.rt_mq_create) refers to object.o(i.rt_object_allocate) for rt_object_allocate
    ipc.o(i.rt_mq_create) refers to ipc.o(i.rt_ipc_object_init) for rt_ipc_object_init
    ipc.o(i.rt_mq_create) refers to mem.o(i.rt_malloc) for rt_malloc
    ipc.o(i.rt_mq_create) refers to ipc.o(i.rt_mq_delete) for rt_mq_delete
    ipc.o(i.rt_mq_delete) refers to ipc.o(i.rt_ipc_list_resume_all) for rt_ipc_list_resume_all
    ipc.o(i.rt_mq_delete) refers to mem.o(i.rt_free) for rt_free
    ipc.o(i.rt_mq_delete) refers to object.o(i.rt_object_delete) for rt_object_delete
    ipc.o(i.rt_mq_detach) refers to ipc.o(i.rt_ipc_list_resume_all) for rt_ipc_list_resume_all
    ipc.o(i.rt_mq_detach) refers to object.o(i.rt_object_detach) for rt_object_detach
    ipc.o(i.rt_mq_init) refers to object.o(i.rt_object_init) for rt_object_init
    ipc.o(i.rt_mq_init) refers to ipc.o(i.rt_ipc_object_init) for rt_ipc_object_init
    ipc.o(i.rt_mq_recv) refers to thread.o(i.rt_thread_self) for rt_thread_self
    ipc.o(i.rt_mq_recv) refers to context_rvds.o(.text) for rt_hw_interrupt_disable
    ipc.o(i.rt_mq_recv) refers to ipc.o(i.rt_ipc_list_suspend) for rt_ipc_list_suspend
    ipc.o(i.rt_mq_recv) refers to clock.o(i.rt_tick_get) for rt_tick_get
    ipc.o(i.rt_mq_recv) refers to timer.o(i.rt_timer_control) for rt_timer_control
    ipc.o(i.rt_mq_recv) refers to timer.o(i.rt_timer_start) for rt_timer_start
    ipc.o(i.rt_mq_recv) refers to scheduler.o(i.rt_schedule) for rt_schedule
    ipc.o(i.rt_mq_recv) refers to kservice.o(i.rt_memcpy) for rt_memcpy
    ipc.o(i.rt_mq_send) refers to context_rvds.o(.text) for rt_hw_interrupt_disable
    ipc.o(i.rt_mq_send) refers to kservice.o(i.rt_memcpy) for rt_memcpy
    ipc.o(i.rt_mq_send) refers to ipc.o(i.rt_list_isempty) for rt_list_isempty
    ipc.o(i.rt_mq_send) refers to ipc.o(i.rt_ipc_list_resume) for rt_ipc_list_resume
    ipc.o(i.rt_mq_send) refers to scheduler.o(i.rt_schedule) for rt_schedule
    ipc.o(i.rt_mq_urgent) refers to context_rvds.o(.text) for rt_hw_interrupt_disable
    ipc.o(i.rt_mq_urgent) refers to kservice.o(i.rt_memcpy) for rt_memcpy
    ipc.o(i.rt_mq_urgent) refers to ipc.o(i.rt_list_isempty) for rt_list_isempty
    ipc.o(i.rt_mq_urgent) refers to ipc.o(i.rt_ipc_list_resume) for rt_ipc_list_resume
    ipc.o(i.rt_mq_urgent) refers to scheduler.o(i.rt_schedule) for rt_schedule
    ipc.o(i.rt_mutex_create) refers to object.o(i.rt_object_allocate) for rt_object_allocate
    ipc.o(i.rt_mutex_create) refers to ipc.o(i.rt_ipc_object_init) for rt_ipc_object_init
    ipc.o(i.rt_mutex_delete) refers to ipc.o(i.rt_ipc_list_resume_all) for rt_ipc_list_resume_all
    ipc.o(i.rt_mutex_delete) refers to object.o(i.rt_object_delete) for rt_object_delete
    ipc.o(i.rt_mutex_detach) refers to ipc.o(i.rt_ipc_list_resume_all) for rt_ipc_list_resume_all
    ipc.o(i.rt_mutex_detach) refers to object.o(i.rt_object_detach) for rt_object_detach
    ipc.o(i.rt_mutex_init) refers to object.o(i.rt_object_init) for rt_object_init
    ipc.o(i.rt_mutex_init) refers to ipc.o(i.rt_ipc_object_init) for rt_ipc_object_init
    ipc.o(i.rt_mutex_release) refers to thread.o(i.rt_thread_self) for rt_thread_self
    ipc.o(i.rt_mutex_release) refers to context_rvds.o(.text) for rt_hw_interrupt_disable
    ipc.o(i.rt_mutex_release) refers to thread.o(i.rt_thread_control) for rt_thread_control
    ipc.o(i.rt_mutex_release) refers to ipc.o(i.rt_list_isempty) for rt_list_isempty
    ipc.o(i.rt_mutex_release) refers to ipc.o(i.rt_ipc_list_resume) for rt_ipc_list_resume
    ipc.o(i.rt_mutex_release) refers to scheduler.o(i.rt_schedule) for rt_schedule
    ipc.o(i.rt_mutex_take) refers to thread.o(i.rt_thread_self) for rt_thread_self
    ipc.o(i.rt_mutex_take) refers to context_rvds.o(.text) for rt_hw_interrupt_disable
    ipc.o(i.rt_mutex_take) refers to thread.o(i.rt_thread_control) for rt_thread_control
    ipc.o(i.rt_mutex_take) refers to ipc.o(i.rt_ipc_list_suspend) for rt_ipc_list_suspend
    ipc.o(i.rt_mutex_take) refers to timer.o(i.rt_timer_control) for rt_timer_control
    ipc.o(i.rt_mutex_take) refers to timer.o(i.rt_timer_start) for rt_timer_start
    ipc.o(i.rt_mutex_take) refers to scheduler.o(i.rt_schedule) for rt_schedule
    ipc.o(i.rt_sem_control) refers to context_rvds.o(.text) for rt_hw_interrupt_disable
    ipc.o(i.rt_sem_control) refers to ipc.o(i.rt_ipc_list_resume_all) for rt_ipc_list_resume_all
    ipc.o(i.rt_sem_control) refers to scheduler.o(i.rt_schedule) for rt_schedule
    ipc.o(i.rt_sem_create) refers to object.o(i.rt_object_allocate) for rt_object_allocate
    ipc.o(i.rt_sem_create) refers to ipc.o(i.rt_ipc_object_init) for rt_ipc_object_init
    ipc.o(i.rt_sem_delete) refers to ipc.o(i.rt_ipc_list_resume_all) for rt_ipc_list_resume_all
    ipc.o(i.rt_sem_delete) refers to object.o(i.rt_object_delete) for rt_object_delete
    ipc.o(i.rt_sem_detach) refers to ipc.o(i.rt_ipc_list_resume_all) for rt_ipc_list_resume_all
    ipc.o(i.rt_sem_detach) refers to object.o(i.rt_object_detach) for rt_object_detach
    ipc.o(i.rt_sem_init) refers to object.o(i.rt_object_init) for rt_object_init
    ipc.o(i.rt_sem_init) refers to ipc.o(i.rt_ipc_object_init) for rt_ipc_object_init
    ipc.o(i.rt_sem_release) refers to context_rvds.o(.text) for rt_hw_interrupt_disable
    ipc.o(i.rt_sem_release) refers to ipc.o(i.rt_list_isempty) for rt_list_isempty
    ipc.o(i.rt_sem_release) refers to ipc.o(i.rt_ipc_list_resume) for rt_ipc_list_resume
    ipc.o(i.rt_sem_release) refers to scheduler.o(i.rt_schedule) for rt_schedule
    ipc.o(i.rt_sem_take) refers to context_rvds.o(.text) for rt_hw_interrupt_disable
    ipc.o(i.rt_sem_take) refers to thread.o(i.rt_thread_self) for rt_thread_self
    ipc.o(i.rt_sem_take) refers to ipc.o(i.rt_ipc_list_suspend) for rt_ipc_list_suspend
    ipc.o(i.rt_sem_take) refers to timer.o(i.rt_timer_control) for rt_timer_control
    ipc.o(i.rt_sem_take) refers to timer.o(i.rt_timer_start) for rt_timer_start
    ipc.o(i.rt_sem_take) refers to scheduler.o(i.rt_schedule) for rt_schedule
    ipc.o(i.rt_sem_trytake) refers to ipc.o(i.rt_sem_take) for rt_sem_take
    irq.o(i.rt_interrupt_enter) refers to context_rvds.o(.text) for rt_hw_interrupt_disable
    irq.o(i.rt_interrupt_enter) refers to irq.o(.data) for rt_interrupt_nest
    irq.o(i.rt_interrupt_get_nest) refers to irq.o(.data) for rt_interrupt_nest
    irq.o(i.rt_interrupt_leave) refers to context_rvds.o(.text) for rt_hw_interrupt_disable
    irq.o(i.rt_interrupt_leave) refers to irq.o(.data) for rt_interrupt_nest
    kservice.o(i.__rt_ffs) refers to kservice.o(.constdata) for __lowest_bit_bitmap
    kservice.o(i._rt_errno) refers to irq.o(i.rt_interrupt_get_nest) for rt_interrupt_get_nest
    kservice.o(i._rt_errno) refers to thread.o(i.rt_thread_self) for rt_thread_self
    kservice.o(i._rt_errno) refers to kservice.o(.data) for __rt_errno
    kservice.o(i.print_number) refers to kservice.o(.constdata) for large_digits
    kservice.o(i.rt_free_align) refers to mem.o(i.rt_free) for rt_free
    kservice.o(i.rt_get_errno) refers to irq.o(i.rt_interrupt_get_nest) for rt_interrupt_get_nest
    kservice.o(i.rt_get_errno) refers to thread.o(i.rt_thread_self) for rt_thread_self
    kservice.o(i.rt_get_errno) refers to kservice.o(.data) for __rt_errno
    kservice.o(i.rt_kprintf) refers to printfa.o(i.__0vsnprintf) for vsnprintf
    kservice.o(i.rt_kprintf) refers to board.o(i.rt_hw_console_output) for rt_hw_console_output
    kservice.o(i.rt_kprintf) refers to kservice.o(.bss) for rt_log_buf
    kservice.o(i.rt_kputs) refers to board.o(i.rt_hw_console_output) for rt_hw_console_output
    kservice.o(i.rt_malloc_align) refers to mem.o(i.rt_malloc) for rt_malloc
    kservice.o(i.rt_set_errno) refers to irq.o(i.rt_interrupt_get_nest) for rt_interrupt_get_nest
    kservice.o(i.rt_set_errno) refers to thread.o(i.rt_thread_self) for rt_thread_self
    kservice.o(i.rt_set_errno) refers to kservice.o(.data) for __rt_errno
    kservice.o(i.rt_show_version) refers to kservice.o(i.rt_kprintf) for rt_kprintf
    kservice.o(i.rt_snprintf) refers to kservice.o(i.rt_vsnprintf) for rt_vsnprintf
    kservice.o(i.rt_sprintf) refers to kservice.o(i.rt_vsprintf) for rt_vsprintf
    kservice.o(i.rt_strdup) refers to kservice.o(i.rt_strlen) for rt_strlen
    kservice.o(i.rt_strdup) refers to mem.o(i.rt_malloc) for rt_malloc
    kservice.o(i.rt_strdup) refers to kservice.o(i.rt_memcpy) for rt_memcpy
    kservice.o(i.rt_strstr) refers to kservice.o(i.rt_strlen) for rt_strlen
    kservice.o(i.rt_strstr) refers to kservice.o(i.rt_memcmp) for rt_memcmp
    kservice.o(i.rt_vsnprintf) refers to kservice.o(i.skip_atoi) for skip_atoi
    kservice.o(i.rt_vsnprintf) refers to kservice.o(i.rt_strlen) for rt_strlen
    kservice.o(i.rt_vsnprintf) refers to kservice.o(i.print_number) for print_number
    kservice.o(i.rt_vsprintf) refers to kservice.o(i.rt_vsnprintf) for rt_vsnprintf
    mem.o(i.plug_holes) refers to mem.o(.data) for heap_ptr
    mem.o(i.rt_calloc) refers to mem.o(i.rt_malloc) for rt_malloc
    mem.o(i.rt_calloc) refers to kservice.o(i.rt_memset) for rt_memset
    mem.o(i.rt_free) refers to ipc.o(i.rt_sem_take) for rt_sem_take
    mem.o(i.rt_free) refers to kservice.o(i.rt_kprintf) for rt_kprintf
    mem.o(i.rt_free) refers to mem.o(i.plug_holes) for plug_holes
    mem.o(i.rt_free) refers to ipc.o(i.rt_sem_release) for rt_sem_release
    mem.o(i.rt_free) refers to mem.o(.data) for heap_ptr
    mem.o(i.rt_free) refers to mem.o(.bss) for heap_sem
    mem.o(i.rt_malloc) refers to ipc.o(i.rt_sem_take) for rt_sem_take
    mem.o(i.rt_malloc) refers to ipc.o(i.rt_sem_release) for rt_sem_release
    mem.o(i.rt_malloc) refers to mem.o(.data) for mem_size_aligned
    mem.o(i.rt_malloc) refers to mem.o(.bss) for heap_sem
    mem.o(i.rt_memory_info) refers to mem.o(.data) for mem_size_aligned
    mem.o(i.rt_realloc) refers to mem.o(i.rt_free) for rt_free
    mem.o(i.rt_realloc) refers to mem.o(i.rt_malloc) for rt_malloc
    mem.o(i.rt_realloc) refers to ipc.o(i.rt_sem_take) for rt_sem_take
    mem.o(i.rt_realloc) refers to ipc.o(i.rt_sem_release) for rt_sem_release
    mem.o(i.rt_realloc) refers to mem.o(i.plug_holes) for plug_holes
    mem.o(i.rt_realloc) refers to kservice.o(i.rt_memcpy) for rt_memcpy
    mem.o(i.rt_realloc) refers to mem.o(.data) for mem_size_aligned
    mem.o(i.rt_realloc) refers to mem.o(.bss) for heap_sem
    mem.o(i.rt_system_heap_init) refers to kservice.o(i.rt_kprintf) for rt_kprintf
    mem.o(i.rt_system_heap_init) refers to ipc.o(i.rt_sem_init) for rt_sem_init
    mem.o(i.rt_system_heap_init) refers to mem.o(.data) for mem_size_aligned
    mem.o(i.rt_system_heap_init) refers to mem.o(.bss) for heap_sem
    mempool.o(i.rt_mp_alloc) refers to thread.o(i.rt_thread_self) for rt_thread_self
    mempool.o(i.rt_mp_alloc) refers to context_rvds.o(.text) for rt_hw_interrupt_disable
    mempool.o(i.rt_mp_alloc) refers to kservice.o(i.rt_set_errno) for rt_set_errno
    mempool.o(i.rt_mp_alloc) refers to thread.o(i.rt_thread_suspend) for rt_thread_suspend
    mempool.o(i.rt_mp_alloc) refers to clock.o(i.rt_tick_get) for rt_tick_get
    mempool.o(i.rt_mp_alloc) refers to timer.o(i.rt_timer_control) for rt_timer_control
    mempool.o(i.rt_mp_alloc) refers to timer.o(i.rt_timer_start) for rt_timer_start
    mempool.o(i.rt_mp_alloc) refers to scheduler.o(i.rt_schedule) for rt_schedule
    mempool.o(i.rt_mp_create) refers to object.o(i.rt_object_allocate) for rt_object_allocate
    mempool.o(i.rt_mp_create) refers to mem.o(i.rt_malloc) for rt_malloc
    mempool.o(i.rt_mp_create) refers to object.o(i.rt_object_delete) for rt_object_delete
    mempool.o(i.rt_mp_create) refers to mempool.o(i.rt_list_init) for rt_list_init
    mempool.o(i.rt_mp_delete) refers to context_rvds.o(.text) for rt_hw_interrupt_disable
    mempool.o(i.rt_mp_delete) refers to thread.o(i.rt_thread_resume) for rt_thread_resume
    mempool.o(i.rt_mp_delete) refers to mempool.o(i.rt_list_isempty) for rt_list_isempty
    mempool.o(i.rt_mp_delete) refers to mem.o(i.rt_free) for rt_free
    mempool.o(i.rt_mp_delete) refers to object.o(i.rt_object_delete) for rt_object_delete
    mempool.o(i.rt_mp_detach) refers to context_rvds.o(.text) for rt_hw_interrupt_disable
    mempool.o(i.rt_mp_detach) refers to thread.o(i.rt_thread_resume) for rt_thread_resume
    mempool.o(i.rt_mp_detach) refers to mempool.o(i.rt_list_isempty) for rt_list_isempty
    mempool.o(i.rt_mp_detach) refers to object.o(i.rt_object_detach) for rt_object_detach
    mempool.o(i.rt_mp_free) refers to context_rvds.o(.text) for rt_hw_interrupt_disable
    mempool.o(i.rt_mp_free) refers to thread.o(i.rt_thread_resume) for rt_thread_resume
    mempool.o(i.rt_mp_free) refers to scheduler.o(i.rt_schedule) for rt_schedule
    mempool.o(i.rt_mp_init) refers to object.o(i.rt_object_init) for rt_object_init
    mempool.o(i.rt_mp_init) refers to mempool.o(i.rt_list_init) for rt_list_init
    object.o(i.rt_object_allocate) refers to object.o(i.rt_object_get_information) for rt_object_get_information
    object.o(i.rt_object_allocate) refers to mem.o(i.rt_malloc) for rt_malloc
    object.o(i.rt_object_allocate) refers to kservice.o(i.rt_strncpy) for rt_strncpy
    object.o(i.rt_object_allocate) refers to context_rvds.o(.text) for rt_hw_interrupt_disable
    object.o(i.rt_object_allocate) refers to object.o(i.rt_list_insert_after) for rt_list_insert_after
    object.o(i.rt_object_delete) refers to context_rvds.o(.text) for rt_hw_interrupt_disable
    object.o(i.rt_object_delete) refers to object.o(i.rt_list_remove) for rt_list_remove
    object.o(i.rt_object_delete) refers to mem.o(i.rt_free) for rt_free
    object.o(i.rt_object_detach) refers to context_rvds.o(.text) for rt_hw_interrupt_disable
    object.o(i.rt_object_detach) refers to object.o(i.rt_list_remove) for rt_list_remove
    object.o(i.rt_object_find) refers to scheduler.o(i.rt_enter_critical) for rt_enter_critical
    object.o(i.rt_object_find) refers to object.o(i.rt_object_get_information) for rt_object_get_information
    object.o(i.rt_object_find) refers to kservice.o(i.rt_strncmp) for rt_strncmp
    object.o(i.rt_object_find) refers to scheduler.o(i.rt_exit_critical) for rt_exit_critical
    object.o(i.rt_object_get_information) refers to object.o(.data) for rt_object_container
    object.o(i.rt_object_init) refers to object.o(i.rt_object_get_information) for rt_object_get_information
    object.o(i.rt_object_init) refers to kservice.o(i.rt_strncpy) for rt_strncpy
    object.o(i.rt_object_init) refers to context_rvds.o(.text) for rt_hw_interrupt_disable
    object.o(i.rt_object_init) refers to object.o(i.rt_list_insert_after) for rt_list_insert_after
    scheduler.o(i.rt_critical_level) refers to scheduler.o(.data) for rt_scheduler_lock_nest
    scheduler.o(i.rt_enter_critical) refers to context_rvds.o(.text) for rt_hw_interrupt_disable
    scheduler.o(i.rt_enter_critical) refers to scheduler.o(.data) for rt_scheduler_lock_nest
    scheduler.o(i.rt_exit_critical) refers to context_rvds.o(.text) for rt_hw_interrupt_disable
    scheduler.o(i.rt_exit_critical) refers to scheduler.o(i.rt_schedule) for rt_schedule
    scheduler.o(i.rt_exit_critical) refers to scheduler.o(.data) for rt_scheduler_lock_nest
    scheduler.o(i.rt_schedule) refers to context_rvds.o(.text) for rt_hw_interrupt_disable
    scheduler.o(i.rt_schedule) refers to kservice.o(i.__rt_ffs) for __rt_ffs
    scheduler.o(i.rt_schedule) refers to scheduler.o(.data) for rt_scheduler_lock_nest
    scheduler.o(i.rt_schedule) refers to scheduler.o(.bss) for rt_thread_priority_table
    scheduler.o(i.rt_schedule) refers to irq.o(.data) for rt_interrupt_nest
    scheduler.o(i.rt_schedule_insert_thread) refers to context_rvds.o(.text) for rt_hw_interrupt_disable
    scheduler.o(i.rt_schedule_insert_thread) refers to scheduler.o(.bss) for rt_thread_priority_table
    scheduler.o(i.rt_schedule_insert_thread) refers to scheduler.o(.data) for rt_thread_ready_priority_group
    scheduler.o(i.rt_schedule_remove_thread) refers to context_rvds.o(.text) for rt_hw_interrupt_disable
    scheduler.o(i.rt_schedule_remove_thread) refers to scheduler.o(.bss) for rt_thread_priority_table
    scheduler.o(i.rt_schedule_remove_thread) refers to scheduler.o(.data) for rt_thread_ready_priority_group
    scheduler.o(i.rt_system_scheduler_init) refers to scheduler.o(i.rt_list_init) for rt_list_init
    scheduler.o(i.rt_system_scheduler_init) refers to scheduler.o(.data) for rt_scheduler_lock_nest
    scheduler.o(i.rt_system_scheduler_init) refers to scheduler.o(.bss) for rt_thread_priority_table
    scheduler.o(i.rt_system_scheduler_start) refers to kservice.o(i.__rt_ffs) for __rt_ffs
    scheduler.o(i.rt_system_scheduler_start) refers to context_rvds.o(.text) for rt_hw_context_switch_to
    scheduler.o(i.rt_system_scheduler_start) refers to scheduler.o(.data) for rt_thread_ready_priority_group
    scheduler.o(i.rt_system_scheduler_start) refers to scheduler.o(.bss) for rt_thread_priority_table
    thread.o(i._rt_thread_init) refers to kservice.o(i.rt_memset) for rt_memset
    thread.o(i._rt_thread_init) refers to cpuport.o(i.rt_hw_stack_init) for rt_hw_stack_init
    thread.o(i._rt_thread_init) refers to timer.o(i.rt_timer_init) for rt_timer_init
    thread.o(i._rt_thread_init) refers to thread.o(i.rt_thread_exit) for rt_thread_exit
    thread.o(i._rt_thread_init) refers to thread.o(i.rt_thread_timeout) for rt_thread_timeout
    thread.o(i.rt_thread_control) refers to context_rvds.o(.text) for rt_hw_interrupt_disable
    thread.o(i.rt_thread_control) refers to scheduler.o(i.rt_schedule_remove_thread) for rt_schedule_remove_thread
    thread.o(i.rt_thread_control) refers to scheduler.o(i.rt_schedule_insert_thread) for rt_schedule_insert_thread
    thread.o(i.rt_thread_control) refers to thread.o(i.rt_thread_startup) for rt_thread_startup
    thread.o(i.rt_thread_control) refers to thread.o(i.rt_thread_delete) for rt_thread_delete
    thread.o(i.rt_thread_create) refers to object.o(i.rt_object_allocate) for rt_object_allocate
    thread.o(i.rt_thread_create) refers to mem.o(i.rt_malloc) for rt_malloc
    thread.o(i.rt_thread_create) refers to object.o(i.rt_object_delete) for rt_object_delete
    thread.o(i.rt_thread_create) refers to thread.o(i._rt_thread_init) for _rt_thread_init
    thread.o(i.rt_thread_delay) refers to thread.o(i.rt_thread_sleep) for rt_thread_sleep
    thread.o(i.rt_thread_delete) refers to scheduler.o(i.rt_schedule_remove_thread) for rt_schedule_remove_thread
    thread.o(i.rt_thread_delete) refers to timer.o(i.rt_timer_detach) for rt_timer_detach
    thread.o(i.rt_thread_delete) refers to context_rvds.o(.text) for rt_hw_interrupt_disable
    thread.o(i.rt_thread_delete) refers to thread.o(i.rt_list_insert_after) for rt_list_insert_after
    thread.o(i.rt_thread_delete) refers to scheduler.o(.data) for rt_thread_defunct
    thread.o(i.rt_thread_detach) refers to scheduler.o(i.rt_schedule_remove_thread) for rt_schedule_remove_thread
    thread.o(i.rt_thread_detach) refers to timer.o(i.rt_timer_detach) for rt_timer_detach
    thread.o(i.rt_thread_detach) refers to object.o(i.rt_object_detach) for rt_object_detach
    thread.o(i.rt_thread_detach) refers to context_rvds.o(.text) for rt_hw_interrupt_disable
    thread.o(i.rt_thread_detach) refers to thread.o(i.rt_list_insert_after) for rt_list_insert_after
    thread.o(i.rt_thread_detach) refers to scheduler.o(.data) for rt_thread_defunct
    thread.o(i.rt_thread_exit) refers to context_rvds.o(.text) for rt_hw_interrupt_disable
    thread.o(i.rt_thread_exit) refers to scheduler.o(i.rt_schedule_remove_thread) for rt_schedule_remove_thread
    thread.o(i.rt_thread_exit) refers to timer.o(i.rt_timer_detach) for rt_timer_detach
    thread.o(i.rt_thread_exit) refers to object.o(i.rt_object_is_systemobject) for rt_object_is_systemobject
    thread.o(i.rt_thread_exit) refers to object.o(i.rt_object_detach) for rt_object_detach
    thread.o(i.rt_thread_exit) refers to thread.o(i.rt_list_insert_after) for rt_list_insert_after
    thread.o(i.rt_thread_exit) refers to scheduler.o(i.rt_schedule) for rt_schedule
    thread.o(i.rt_thread_exit) refers to scheduler.o(.data) for rt_current_thread
    thread.o(i.rt_thread_find) refers to thread.o(i.rt_thread_self) for rt_thread_self
    thread.o(i.rt_thread_find) refers to scheduler.o(i.rt_enter_critical) for rt_enter_critical
    thread.o(i.rt_thread_find) refers to object.o(i.rt_object_get_information) for rt_object_get_information
    thread.o(i.rt_thread_find) refers to kservice.o(i.rt_strncmp) for rt_strncmp
    thread.o(i.rt_thread_find) refers to scheduler.o(i.rt_exit_critical) for rt_exit_critical
    thread.o(i.rt_thread_init) refers to object.o(i.rt_object_init) for rt_object_init
    thread.o(i.rt_thread_init) refers to thread.o(i._rt_thread_init) for _rt_thread_init
    thread.o(i.rt_thread_resume) refers to context_rvds.o(.text) for rt_hw_interrupt_disable
    thread.o(i.rt_thread_resume) refers to thread.o(i.rt_list_remove) for rt_list_remove
    thread.o(i.rt_thread_resume) refers to timer.o(i.rt_timer_stop) for rt_timer_stop
    thread.o(i.rt_thread_resume) refers to scheduler.o(i.rt_schedule_insert_thread) for rt_schedule_insert_thread
    thread.o(i.rt_thread_self) refers to scheduler.o(.data) for rt_current_thread
    thread.o(i.rt_thread_sleep) refers to context_rvds.o(.text) for rt_hw_interrupt_disable
    thread.o(i.rt_thread_sleep) refers to thread.o(i.rt_thread_suspend) for rt_thread_suspend
    thread.o(i.rt_thread_sleep) refers to timer.o(i.rt_timer_control) for rt_timer_control
    thread.o(i.rt_thread_sleep) refers to timer.o(i.rt_timer_start) for rt_timer_start
    thread.o(i.rt_thread_sleep) refers to scheduler.o(i.rt_schedule) for rt_schedule
    thread.o(i.rt_thread_sleep) refers to scheduler.o(.data) for rt_current_thread
    thread.o(i.rt_thread_startup) refers to thread.o(i.rt_thread_resume) for rt_thread_resume
    thread.o(i.rt_thread_startup) refers to thread.o(i.rt_thread_self) for rt_thread_self
    thread.o(i.rt_thread_startup) refers to scheduler.o(i.rt_schedule) for rt_schedule
    thread.o(i.rt_thread_suspend) refers to context_rvds.o(.text) for rt_hw_interrupt_disable
    thread.o(i.rt_thread_suspend) refers to scheduler.o(i.rt_schedule_remove_thread) for rt_schedule_remove_thread
    thread.o(i.rt_thread_suspend) refers to timer.o(i.rt_timer_stop) for rt_timer_stop
    thread.o(i.rt_thread_timeout) refers to thread.o(i.rt_list_remove) for rt_list_remove
    thread.o(i.rt_thread_timeout) refers to scheduler.o(i.rt_schedule_insert_thread) for rt_schedule_insert_thread
    thread.o(i.rt_thread_timeout) refers to scheduler.o(i.rt_schedule) for rt_schedule
    thread.o(i.rt_thread_yield) refers to context_rvds.o(.text) for rt_hw_interrupt_disable
    thread.o(i.rt_thread_yield) refers to thread.o(i.rt_list_remove) for rt_list_remove
    thread.o(i.rt_thread_yield) refers to scheduler.o(i.rt_schedule) for rt_schedule
    thread.o(i.rt_thread_yield) refers to scheduler.o(.data) for rt_current_thread
    thread.o(i.rt_thread_yield) refers to scheduler.o(.bss) for rt_thread_priority_table
    timer.o(i._rt_timer_init) refers to timer.o(i.rt_list_init) for rt_list_init
    timer.o(i.rt_system_timer_init) refers to timer.o(i.rt_list_init) for rt_list_init
    timer.o(i.rt_system_timer_init) refers to timer.o(.data) for rt_timer_list
    timer.o(i.rt_timer_check) refers to clock.o(i.rt_tick_get) for rt_tick_get
    timer.o(i.rt_timer_check) refers to context_rvds.o(.text) for rt_hw_interrupt_disable
    timer.o(i.rt_timer_check) refers to timer.o(i._rt_timer_remove) for _rt_timer_remove
    timer.o(i.rt_timer_check) refers to timer.o(i.rt_timer_start) for rt_timer_start
    timer.o(i.rt_timer_check) refers to timer.o(i.rt_list_isempty) for rt_list_isempty
    timer.o(i.rt_timer_check) refers to timer.o(.data) for rt_timer_list
    timer.o(i.rt_timer_create) refers to object.o(i.rt_object_allocate) for rt_object_allocate
    timer.o(i.rt_timer_create) refers to timer.o(i._rt_timer_init) for _rt_timer_init
    timer.o(i.rt_timer_delete) refers to context_rvds.o(.text) for rt_hw_interrupt_disable
    timer.o(i.rt_timer_delete) refers to timer.o(i._rt_timer_remove) for _rt_timer_remove
    timer.o(i.rt_timer_delete) refers to object.o(i.rt_object_delete) for rt_object_delete
    timer.o(i.rt_timer_detach) refers to context_rvds.o(.text) for rt_hw_interrupt_disable
    timer.o(i.rt_timer_detach) refers to timer.o(i._rt_timer_remove) for _rt_timer_remove
    timer.o(i.rt_timer_detach) refers to object.o(i.rt_object_detach) for rt_object_detach
    timer.o(i.rt_timer_init) refers to object.o(i.rt_object_init) for rt_object_init
    timer.o(i.rt_timer_init) refers to timer.o(i._rt_timer_init) for _rt_timer_init
    timer.o(i.rt_timer_list_next_timeout) refers to timer.o(i.rt_list_isempty) for rt_list_isempty
    timer.o(i.rt_timer_next_timeout_tick) refers to timer.o(i.rt_timer_list_next_timeout) for rt_timer_list_next_timeout
    timer.o(i.rt_timer_next_timeout_tick) refers to timer.o(.data) for rt_timer_list
    timer.o(i.rt_timer_start) refers to context_rvds.o(.text) for rt_hw_interrupt_disable
    timer.o(i.rt_timer_start) refers to timer.o(i._rt_timer_remove) for _rt_timer_remove
    timer.o(i.rt_timer_start) refers to clock.o(i.rt_tick_get) for rt_tick_get
    timer.o(i.rt_timer_start) refers to timer.o(i.rt_list_insert_after) for rt_list_insert_after
    timer.o(i.rt_timer_start) refers to timer.o(.data) for rt_timer_list
    timer.o(i.rt_timer_stop) refers to context_rvds.o(.text) for rt_hw_interrupt_disable
    timer.o(i.rt_timer_stop) refers to timer.o(i._rt_timer_remove) for _rt_timer_remove
    cpuport.o(i.rt_hw_cpu_shutdown) refers to kservice.o(i.rt_kprintf) for rt_kprintf
    cpuport.o(i.rt_hw_exception_install) refers to cpuport.o(.data) for rt_exception_hook
    cpuport.o(i.rt_hw_hard_fault_exception) refers to kservice.o(i.rt_kprintf) for rt_kprintf
    cpuport.o(i.rt_hw_hard_fault_exception) refers to thread.o(i.rt_thread_self) for rt_thread_self
    cpuport.o(i.rt_hw_hard_fault_exception) refers to cpuport.o(.data) for rt_exception_hook
    context_rvds.o(.text) refers to cpuport.o(i.rt_hw_hard_fault_exception) for rt_hw_hard_fault_exception
    context_rvds.o(.text) refers to cpuport.o(.data) for rt_thread_switch_interrupt_flag
    delay.o(i.delay_init) refers to misc.o(i.SysTick_CLKSourceConfig) for SysTick_CLKSourceConfig
    delay.o(i.delay_init) refers to delay.o(.data) for fac_us
    delay.o(i.delay_ms) refers to delay.o(i.delay_ostimedly) for delay_ostimedly
    delay.o(i.delay_ms) refers to delay.o(i.delay_us) for delay_us
    delay.o(i.delay_ms) refers to delay.o(.data) for OSRunning
    delay.o(i.delay_ms) refers to irq.o(.data) for rt_interrupt_nest
    delay.o(i.delay_osschedlock) refers to scheduler.o(i.rt_enter_critical) for rt_enter_critical
    delay.o(i.delay_osschedunlock) refers to scheduler.o(i.rt_exit_critical) for rt_exit_critical
    delay.o(i.delay_ostimedly) refers to thread.o(i.rt_thread_delay) for rt_thread_delay
    delay.o(i.delay_s) refers to delay.o(i.delay_ms) for delay_ms
    delay.o(i.delay_us) refers to delay.o(i.delay_osschedlock) for delay_osschedlock
    delay.o(i.delay_us) refers to delay.o(i.delay_osschedunlock) for delay_osschedunlock
    delay.o(i.delay_us) refers to delay.o(.data) for fac_us
    usart.o(i.UART1_send_byte) refers to stm32f10x_usart.o(i.USART_GetFlagStatus) for USART_GetFlagStatus
    usart.o(i.UART1_send_byte) refers to stm32f10x_usart.o(i.USART_SendData) for USART_SendData
    usart.o(i.USART1_IRQHandler) refers to scheduler.o(i.rt_enter_critical) for rt_enter_critical
    usart.o(i.USART1_IRQHandler) refers to stm32f10x_usart.o(i.USART_GetITStatus) for USART_GetITStatus
    usart.o(i.USART1_IRQHandler) refers to stm32f10x_usart.o(i.USART_ReceiveData) for USART_ReceiveData
    usart.o(i.USART1_IRQHandler) refers to scheduler.o(i.rt_exit_critical) for rt_exit_critical
    usart.o(i.USART1_IRQHandler) refers to usart.o(.data) for USART_RX_STA
    usart.o(i.USART1_IRQHandler) refers to usart.o(.bss) for USART_RX_BUF
    usart.o(i.uart_init) refers to stm32f10x_rcc.o(i.RCC_APB2PeriphClockCmd) for RCC_APB2PeriphClockCmd
    usart.o(i.uart_init) refers to stm32f10x_gpio.o(i.GPIO_Init) for GPIO_Init
    usart.o(i.uart_init) refers to misc.o(i.NVIC_Init) for NVIC_Init
    usart.o(i.uart_init) refers to stm32f10x_usart.o(i.USART_Init) for USART_Init
    usart.o(i.uart_init) refers to stm32f10x_usart.o(i.USART_ITConfig) for USART_ITConfig
    usart.o(i.uart_init) refers to stm32f10x_usart.o(i.USART_Cmd) for USART_Cmd
    generaltim.o(i.GENERAL_TIM_Init) refers to generaltim.o(i.GENERAL_TIM_NVIC_Config) for GENERAL_TIM_NVIC_Config
    generaltim.o(i.GENERAL_TIM_Init) refers to generaltim.o(i.GENERAL_TIM_Mode_Config) for GENERAL_TIM_Mode_Config
    generaltim.o(i.GENERAL_TIM_Mode_Config) refers to stm32f10x_rcc.o(i.RCC_APB1PeriphClockCmd) for RCC_APB1PeriphClockCmd
    generaltim.o(i.GENERAL_TIM_Mode_Config) refers to stm32f10x_tim.o(i.TIM_TimeBaseInit) for TIM_TimeBaseInit
    generaltim.o(i.GENERAL_TIM_Mode_Config) refers to stm32f10x_tim.o(i.TIM_ClearFlag) for TIM_ClearFlag
    generaltim.o(i.GENERAL_TIM_Mode_Config) refers to stm32f10x_tim.o(i.TIM_ITConfig) for TIM_ITConfig
    generaltim.o(i.GENERAL_TIM_NVIC_Config) refers to misc.o(i.NVIC_PriorityGroupConfig) for NVIC_PriorityGroupConfig
    generaltim.o(i.GENERAL_TIM_NVIC_Config) refers to misc.o(i.NVIC_Init) for NVIC_Init
    gp2y10_adc.o(i.Collect_data) refers to stm32f10x_gpio.o(i.GPIO_SetBits) for GPIO_SetBits
    gp2y10_adc.o(i.Collect_data) refers to delay.o(i.delay_us) for delay_us
    gp2y10_adc.o(i.Collect_data) refers to stm32f10x_adc.o(i.ADC_SoftwareStartConvCmd) for ADC_SoftwareStartConvCmd
    gp2y10_adc.o(i.Collect_data) refers to stm32f10x_adc.o(i.ADC_GetFlagStatus) for ADC_GetFlagStatus
    gp2y10_adc.o(i.Collect_data) refers to stm32f10x_adc.o(i.ADC_GetConversionValue) for ADC_GetConversionValue
    gp2y10_adc.o(i.Collect_data) refers to gp2y10_adc.o(i.GP2Y_GetDate) for GP2Y_GetDate
    gp2y10_adc.o(i.Collect_data) refers to stm32f10x_adc.o(i.ADC_ClearFlag) for ADC_ClearFlag
    gp2y10_adc.o(i.Collect_data) refers to stm32f10x_gpio.o(i.GPIO_ResetBits) for GPIO_ResetBits
    gp2y10_adc.o(i.GP2Y_ADC_Init) refers to gp2y10_adc.o(i.GP2Y_GPIO_Config) for GP2Y_GPIO_Config
    gp2y10_adc.o(i.GP2Y_ADC_Init) refers to gp2y10_adc.o(i.GP2Y_Mode_Config) for GP2Y_Mode_Config
    gp2y10_adc.o(i.GP2Y_Convert) refers to ffltui.o(.text) for __aeabi_ui2f
    gp2y10_adc.o(i.GP2Y_Convert) refers to fdiv.o(.text) for __aeabi_fdiv
    gp2y10_adc.o(i.GP2Y_Convert) refers to f2d.o(.text) for __aeabi_f2d
    gp2y10_adc.o(i.GP2Y_Convert) refers to ddiv.o(.text) for __aeabi_ddiv
    gp2y10_adc.o(i.GP2Y_Convert) refers to dmul.o(.text) for __aeabi_dmul
    gp2y10_adc.o(i.GP2Y_Convert) refers to d2f.o(.text) for __aeabi_d2f
    gp2y10_adc.o(i.GP2Y_Convert) refers to dadd.o(.text) for __aeabi_dsub
    gp2y10_adc.o(i.GP2Y_Convert) refers to gp2y10_adc.o(.bss) for buffer
    gp2y10_adc.o(i.GP2Y_GPIO_Config) refers to stm32f10x_rcc.o(i.RCC_APB2PeriphClockCmd) for RCC_APB2PeriphClockCmd
    gp2y10_adc.o(i.GP2Y_GPIO_Config) refers to stm32f10x_gpio.o(i.GPIO_Init) for GPIO_Init
    gp2y10_adc.o(i.GP2Y_GPIO_Config) refers to stm32f10x_gpio.o(i.GPIO_ResetBits) for GPIO_ResetBits
    gp2y10_adc.o(i.GP2Y_GetDate) refers to gp2y10_adc.o(.bss) for buffer
    gp2y10_adc.o(i.GP2Y_GetDate) refers to gp2y10_adc.o(.data) for k
    gp2y10_adc.o(i.GP2Y_GetDens) refers to gp2y10_adc.o(i.Collect_data) for Collect_data
    gp2y10_adc.o(i.GP2Y_GetDens) refers to gp2y10_adc.o(i.GP2Y_Convert) for GP2Y_Convert
    gp2y10_adc.o(i.GP2Y_Mode_Config) refers to stm32f10x_rcc.o(i.RCC_APB2PeriphClockCmd) for RCC_APB2PeriphClockCmd
    gp2y10_adc.o(i.GP2Y_Mode_Config) refers to stm32f10x_adc.o(i.ADC_Init) for ADC_Init
    gp2y10_adc.o(i.GP2Y_Mode_Config) refers to stm32f10x_rcc.o(i.RCC_ADCCLKConfig) for RCC_ADCCLKConfig
    gp2y10_adc.o(i.GP2Y_Mode_Config) refers to stm32f10x_adc.o(i.ADC_RegularChannelConfig) for ADC_RegularChannelConfig
    gp2y10_adc.o(i.GP2Y_Mode_Config) refers to stm32f10x_adc.o(i.ADC_Cmd) for ADC_Cmd
    gp2y10_adc.o(i.GP2Y_Mode_Config) refers to stm32f10x_adc.o(i.ADC_ResetCalibration) for ADC_ResetCalibration
    gp2y10_adc.o(i.GP2Y_Mode_Config) refers to stm32f10x_adc.o(i.ADC_GetResetCalibrationStatus) for ADC_GetResetCalibrationStatus
    gp2y10_adc.o(i.GP2Y_Mode_Config) refers to stm32f10x_adc.o(i.ADC_StartCalibration) for ADC_StartCalibration
    gp2y10_adc.o(i.GP2Y_Mode_Config) refers to stm32f10x_adc.o(i.ADC_GetCalibrationStatus) for ADC_GetCalibrationStatus
    hlk_ld2410c.o(i.DataGet_LD2410C) refers to hlk_ld2410c.o(.bss) for Receive_Data_LD2410C
    hlk_tx510.o(i.Dealwith_HLK_TX510) refers to hlk_tx510.o(i.perform_EnrollFace) for perform_EnrollFace
    hlk_tx510.o(i.Dealwith_HLK_TX510) refers to hlk_tx510.o(i.perform_IdentifyFace) for perform_IdentifyFace
    hlk_tx510.o(i.Dealwith_HLK_TX510) refers to hlk_tx510.o(i.perform_DeleteFace) for perform_DeleteFace
    hlk_tx510.o(i.Dealwith_HLK_TX510) refers to hlk_tx510.o(i.perform_DeleteAllFace) for perform_DeleteAllFace
    hlk_tx510.o(i.Dealwith_HLK_TX510) refers to hlk_tx510.o(.data) for HLK_TX510
    hlk_tx510.o(i.Dealwith_HLK_TX510) refers to hlk_tx510.o(.bss) for Receive_Data_TX510
    hlk_tx510.o(i.HLK_TX510_ClearDate) refers to memseta.o(.text) for __aeabi_memclr
    hlk_tx510.o(i.HLK_TX510_ClearDate) refers to hlk_tx510.o(.bss) for RX_Data_TX510
    hlk_tx510.o(i.HLK_TX510_ClearDate) refers to hlk_tx510.o(.data) for HLK_TX510
    hlk_tx510.o(i.HLK_TX510_DeleteAll_FaceID) refers to hlk_tx510.o(i.HLK_TX510_ClearDate) for HLK_TX510_ClearDate
    hlk_tx510.o(i.HLK_TX510_DeleteAll_FaceID) refers to hlk_tx510.o(i.HLK_TX510_Send_DeleteAllCmd) for HLK_TX510_Send_DeleteAllCmd
    hlk_tx510.o(i.HLK_TX510_DeleteAll_FaceID) refers to hlk_tx510.o(.data) for HLK_TX510
    hlk_tx510.o(i.HLK_TX510_Delete_FaceID) refers to hlk_tx510.o(i.HLK_TX510_ClearDate) for HLK_TX510_ClearDate
    hlk_tx510.o(i.HLK_TX510_Delete_FaceID) refers to hlk_tx510.o(i.HLK_TX510_Send_DeleteCmd) for HLK_TX510_Send_DeleteCmd
    hlk_tx510.o(i.HLK_TX510_Delete_FaceID) refers to hlk_tx510.o(.data) for HLK_TX510
    hlk_tx510.o(i.HLK_TX510_Enroll_FaceID) refers to hlk_tx510.o(i.HLK_TX510_ClearDate) for HLK_TX510_ClearDate
    hlk_tx510.o(i.HLK_TX510_Enroll_FaceID) refers to hlk_tx510.o(i.HLK_TX510_Send_FaceCmd) for HLK_TX510_Send_FaceCmd
    hlk_tx510.o(i.HLK_TX510_Enroll_FaceID) refers to hlk_tx510.o(.data) for HLK_TX510
    hlk_tx510.o(i.HLK_TX510_Identify_FaceID) refers to hlk_tx510.o(i.HLK_TX510_ClearDate) for HLK_TX510_ClearDate
    hlk_tx510.o(i.HLK_TX510_Identify_FaceID) refers to hlk_tx510.o(i.HLK_TX510_Send_FaceCmd) for HLK_TX510_Send_FaceCmd
    hlk_tx510.o(i.HLK_TX510_Identify_FaceID) refers to hlk_tx510.o(.data) for HLK_TX510
    hlk_tx510.o(i.HLK_TX510_Receive_Byte) refers to memseta.o(.text) for __aeabi_memclr
    hlk_tx510.o(i.HLK_TX510_Receive_Byte) refers to memcpya.o(.text) for __aeabi_memcpy
    hlk_tx510.o(i.HLK_TX510_Receive_Byte) refers to hlk_tx510.o(.data) for flag_start_TX510
    hlk_tx510.o(i.HLK_TX510_Receive_Byte) refers to hlk_tx510.o(.bss) for RX_Data_TX510
    hlk_tx510.o(i.HLK_TX510_Send_ControlCmd) refers to usart3.o(i.USART3_SendByte) for USART3_SendByte
    hlk_tx510.o(i.HLK_TX510_Send_DeleteAllCmd) refers to usart3.o(i.USART3_SendByte) for USART3_SendByte
    hlk_tx510.o(i.HLK_TX510_Send_DeleteCmd) refers to usart3.o(i.USART3_SendByte) for USART3_SendByte
    hlk_tx510.o(i.HLK_TX510_Send_FaceCmd) refers to usart3.o(i.USART3_SendByte) for USART3_SendByte
    hlk_tx510.o(i.perform_DeleteAllFace) refers to stm32f10x_gpio.o(i.GPIO_ResetBits) for GPIO_ResetBits
    hlk_tx510.o(i.perform_DeleteAllFace) refers to delay.o(i.delay_s) for delay_s
    hlk_tx510.o(i.perform_DeleteAllFace) refers to stm32f10x_gpio.o(i.GPIO_SetBits) for GPIO_SetBits
    hlk_tx510.o(i.perform_DeleteFace) refers to stm32f10x_gpio.o(i.GPIO_ResetBits) for GPIO_ResetBits
    hlk_tx510.o(i.perform_DeleteFace) refers to delay.o(i.delay_s) for delay_s
    hlk_tx510.o(i.perform_DeleteFace) refers to stm32f10x_gpio.o(i.GPIO_SetBits) for GPIO_SetBits
    hlk_tx510.o(i.perform_EnrollFace) refers to stm32f10x_gpio.o(i.GPIO_ResetBits) for GPIO_ResetBits
    hlk_tx510.o(i.perform_EnrollFace) refers to delay.o(i.delay_s) for delay_s
    hlk_tx510.o(i.perform_EnrollFace) refers to stm32f10x_gpio.o(i.GPIO_SetBits) for GPIO_SetBits
    hlk_tx510.o(i.perform_IdentifyFace) refers to stm32f10x_gpio.o(i.GPIO_ResetBits) for GPIO_ResetBits
    hlk_tx510.o(i.perform_IdentifyFace) refers to delay.o(i.delay_s) for delay_s
    hlk_tx510.o(i.perform_IdentifyFace) refers to stm32f10x_gpio.o(i.GPIO_SetBits) for GPIO_SetBits
    ml302.o(i.ML302_CreateTCPSokcet) refers to printfa.o(i.__0printf) for __2printf
    ml302.o(i.ML302_CreateTCPSokcet) refers to delay.o(i.delay_ms) for delay_ms
    ml302.o(i.ML302_CreateTCPSokcet) refers to strstr.o(.text) for strstr
    ml302.o(i.ML302_CreateTCPSokcet) refers to usart2.o(i.Clear_Buffer) for Clear_Buffer
    ml302.o(i.ML302_CreateTCPSokcet) refers to wdg.o(i.IWDG_Feed) for IWDG_Feed
    ml302.o(i.ML302_CreateTCPSokcet) refers to usart2.o(.bss) for RxBuffer
    ml302.o(i.ML302_CreateTCPSokcet) refers to ml302.o(.data) for strx_LBS
    ml302.o(i.ML302_Dis_Re_Connect) refers to printfa.o(i.__0printf) for __2printf
    ml302.o(i.ML302_Dis_Re_Connect) refers to delay.o(i.delay_ms) for delay_ms
    ml302.o(i.ML302_Dis_Re_Connect) refers to usart2.o(i.Clear_Buffer) for Clear_Buffer
    ml302.o(i.ML302_Dis_Re_Connect) refers to strstr.o(.text) for strstr
    ml302.o(i.ML302_Dis_Re_Connect) refers to ml302.o(.conststring) for .conststring
    ml302.o(i.ML302_Dis_Re_Connect) refers to usart2.o(.bss) for RxBuffer
    ml302.o(i.ML302_Dis_Re_Connect) refers to ml302.o(.data) for strx_MQTT
    ml302.o(i.ML302_Init) refers to oled.o(i.OLED_Clear) for OLED_Clear
    ml302.o(i.ML302_Init) refers to oled.o(i.OLED_ShowString) for OLED_ShowString
    ml302.o(i.ML302_Init) refers to ml302.o(i.ML302_Init_MQTT) for ML302_Init_MQTT
    ml302.o(i.ML302_Init) refers to delay.o(i.delay_ms) for delay_ms
    ml302.o(i.ML302_Init) refers to ml302.o(i.ML302_Init_call) for ML302_Init_call
    ml302.o(i.ML302_Init) refers to ml302.o(i.ML302_Init_text) for ML302_Init_text
    ml302.o(i.ML302_Init) refers to ml302.o(i.ML302_MQTTInit) for ML302_MQTTInit
    ml302.o(i.ML302_Init) refers to ml302.o(i.ML302_MQTTSUB) for ML302_MQTTSUB
    ml302.o(i.ML302_Init_LBS) refers to usart.o(i.Uart1_SendStr) for Uart1_SendStr
    ml302.o(i.ML302_Init_LBS) refers to delay.o(i.delay_ms) for delay_ms
    ml302.o(i.ML302_Init_LBS) refers to printfa.o(i.__0printf) for __2printf
    ml302.o(i.ML302_Init_LBS) refers to strstr.o(.text) for strstr
    ml302.o(i.ML302_Init_LBS) refers to usart2.o(i.Clear_Buffer) for Clear_Buffer
    ml302.o(i.ML302_Init_LBS) refers to wdg.o(i.IWDG_Feed) for IWDG_Feed
    ml302.o(i.ML302_Init_LBS) refers to usart2.o(.bss) for RxBuffer
    ml302.o(i.ML302_Init_LBS) refers to ml302.o(.data) for strx_LBS
    ml302.o(i.ML302_Init_MQTT) refers to usart2.o(i.Clear_Buffer_separate) for Clear_Buffer_separate
    ml302.o(i.ML302_Init_MQTT) refers to usart.o(i.Uart1_SendStr) for Uart1_SendStr
    ml302.o(i.ML302_Init_MQTT) refers to delay.o(i.delay_ms) for delay_ms
    ml302.o(i.ML302_Init_MQTT) refers to printfa.o(i.__0printf) for __2printf
    ml302.o(i.ML302_Init_MQTT) refers to strstr.o(.text) for strstr
    ml302.o(i.ML302_Init_MQTT) refers to usart2.o(i.Clear_Buffer) for Clear_Buffer
    ml302.o(i.ML302_Init_MQTT) refers to usart2.o(.bss) for RxBuffer
    ml302.o(i.ML302_Init_MQTT) refers to ml302.o(.data) for strx_MQTT
    ml302.o(i.ML302_Init_call) refers to usart.o(i.Uart1_SendStr) for Uart1_SendStr
    ml302.o(i.ML302_Init_call) refers to printfa.o(i.__0printf) for __2printf
    ml302.o(i.ML302_Init_call) refers to delay.o(i.delay_ms) for delay_ms
    ml302.o(i.ML302_Init_call) refers to strstr.o(.text) for strstr
    ml302.o(i.ML302_Init_call) refers to usart2.o(i.Clear_Buffer) for Clear_Buffer
    ml302.o(i.ML302_Init_call) refers to usart2.o(.bss) for RxBuffer
    ml302.o(i.ML302_Init_call) refers to ml302.o(.data) for strx_call
    ml302.o(i.ML302_Init_text) refers to usart.o(i.Uart1_SendStr) for Uart1_SendStr
    ml302.o(i.ML302_Init_text) refers to delay.o(i.delay_ms) for delay_ms
    ml302.o(i.ML302_Init_text) refers to printfa.o(i.__0printf) for __2printf
    ml302.o(i.ML302_Init_text) refers to strstr.o(.text) for strstr
    ml302.o(i.ML302_Init_text) refers to usart2.o(i.Clear_Buffer) for Clear_Buffer
    ml302.o(i.ML302_Init_text) refers to usart2.o(.bss) for RxBuffer
    ml302.o(i.ML302_Init_text) refers to ml302.o(.data) for strx_text
    ml302.o(i.ML302_MQTTInit) refers to usart2.o(i.Clear_Buffer_separate) for Clear_Buffer_separate
    ml302.o(i.ML302_MQTTInit) refers to printfa.o(i.__0printf) for __2printf
    ml302.o(i.ML302_MQTTInit) refers to delay.o(i.delay_ms) for delay_ms
    ml302.o(i.ML302_MQTTInit) refers to usart2.o(i.Clear_Buffer) for Clear_Buffer
    ml302.o(i.ML302_MQTTInit) refers to strstr.o(.text) for strstr
    ml302.o(i.ML302_MQTTInit) refers to ml302.o(.conststring) for .conststring
    ml302.o(i.ML302_MQTTInit) refers to usart2.o(.bss) for RxBuffer
    ml302.o(i.ML302_MQTTInit) refers to ml302.o(.data) for strx_MQTT
    ml302.o(i.ML302_MQTTPUBMessage_STM32) refers to f2d.o(.text) for __aeabi_f2d
    ml302.o(i.ML302_MQTTPUBMessage_STM32) refers to printfa.o(i.__0printf) for __2printf
    ml302.o(i.ML302_MQTTPUBMessage_STM32) refers to delay.o(i.delay_ms) for delay_ms
    ml302.o(i.ML302_MQTTPUBMessage_STM32) refers to strstr.o(.text) for strstr
    ml302.o(i.ML302_MQTTPUBMessage_STM32) refers to usart2.o(i.Clear_Buffer) for Clear_Buffer
    ml302.o(i.ML302_MQTTPUBMessage_STM32) refers to ml302.o(.conststring) for .conststring
    ml302.o(i.ML302_MQTTPUBMessage_STM32) refers to usart2.o(.bss) for RxBuffer
    ml302.o(i.ML302_MQTTPUBMessage_STM32) refers to ml302.o(.data) for strx_MQTT
    ml302.o(i.ML302_MQTTPUBMessage_WeChat) refers to printfa.o(i.__0printf) for __2printf
    ml302.o(i.ML302_MQTTPUBMessage_WeChat) refers to delay.o(i.delay_ms) for delay_ms
    ml302.o(i.ML302_MQTTPUBMessage_WeChat) refers to strstr.o(.text) for strstr
    ml302.o(i.ML302_MQTTPUBMessage_WeChat) refers to usart2.o(i.Clear_Buffer) for Clear_Buffer
    ml302.o(i.ML302_MQTTPUBMessage_WeChat) refers to ml302.o(.conststring) for .conststring
    ml302.o(i.ML302_MQTTPUBMessage_WeChat) refers to usart2.o(.bss) for RxBuffer
    ml302.o(i.ML302_MQTTPUBMessage_WeChat) refers to ml302.o(.data) for strx_MQTT
    ml302.o(i.ML302_MQTTSUB) refers to usart2.o(i.Clear_Buffer_separate) for Clear_Buffer_separate
    ml302.o(i.ML302_MQTTSUB) refers to printfa.o(i.__0printf) for __2printf
    ml302.o(i.ML302_MQTTSUB) refers to strstr.o(.text) for strstr
    ml302.o(i.ML302_MQTTSUB) refers to usart2.o(i.Clear_Buffer) for Clear_Buffer
    ml302.o(i.ML302_MQTTSUB) refers to delay.o(i.delay_ms) for delay_ms
    ml302.o(i.ML302_MQTTSUB) refers to usart2.o(.bss) for RxBuffer
    ml302.o(i.ML302_MQTTSUB) refers to ml302.o(.data) for strx_MQTTSUB
    ml302.o(i.ML302_MQTTUNSUB) refers to printfa.o(i.__0printf) for __2printf
    ml302.o(i.ML302_MQTTUNSUB) refers to strstr.o(.text) for strstr
    ml302.o(i.ML302_MQTTUNSUB) refers to usart2.o(i.Clear_Buffer) for Clear_Buffer
    ml302.o(i.ML302_MQTTUNSUB) refers to delay.o(i.delay_ms) for delay_ms
    ml302.o(i.ML302_MQTTUNSUB) refers to usart2.o(.bss) for RxBuffer
    ml302.o(i.ML302_MQTTUNSUB) refers to ml302.o(.data) for strx_MQTTSUB
    ml302.o(i.ML302_MQTT_RECData) refers to _scanf_str.o(.text) for _scanf_string
    ml302.o(i.ML302_MQTT_RECData) refers to strstr.o(.text) for strstr
    ml302.o(i.ML302_MQTT_RECData) refers to __0sscanf.o(.text) for __0sscanf
    ml302.o(i.ML302_MQTT_RECData) refers to stm32f10x_tim.o(i.TIM_Cmd) for TIM_Cmd
    ml302.o(i.ML302_MQTT_RECData) refers to strcmp.o(.text) for strcmp
    ml302.o(i.ML302_MQTT_RECData) refers to usart.o(i.Uart1_SendStr) for Uart1_SendStr
    ml302.o(i.ML302_MQTT_RECData) refers to wdg.o(i.IWDG_Feed) for IWDG_Feed
    ml302.o(i.ML302_MQTT_RECData) refers to strlen.o(.text) for strlen
    ml302.o(i.ML302_MQTT_RECData) refers to usart2.o(.bss) for RxBuffer
    ml302.o(i.ML302_MQTT_RECData) refers to ml302.o(.data) for strx_MQTT_REC_cache
    ml302.o(i.ML302_MQTT_RECData) refers to ml302.o(.bss) for judge_rec
    ml302.o(i.ML302_MQTT_RECData) refers to deal_with.o(.data) for WeChat_cache
    ml302.o(i.ML302_MQTT_RECData) refers to usart2.o(i.Clear_Buffer_separate) for Clear_Buffer_separate
    ml302.o(i.ML302_RECData) refers to strstr.o(.text) for strstr
    ml302.o(i.ML302_RECData) refers to usart2.o(i.Clear_Buffer) for Clear_Buffer
    ml302.o(i.ML302_RECData) refers to usart2.o(.bss) for RxBuffer
    ml302.o(i.ML302_RECData) refers to ml302.o(.data) for strx_LBS
    ml302.o(i.ML302_SendMessage) refers to printfa.o(i.__0printf) for __2printf
    ml302.o(i.ML302_SendMessage) refers to delay.o(i.delay_ms) for delay_ms
    ml302.o(i.ML302_SendMessage) refers to strstr.o(.text) for strstr
    ml302.o(i.ML302_SendMessage) refers to usart2.o(i.Clear_Buffer) for Clear_Buffer
    ml302.o(i.ML302_SendMessage) refers to usart2.o(.bss) for RxBuffer
    ml302.o(i.ML302_SendMessage) refers to ml302.o(.data) for strx_text
    ml302.o(i.ML302_TCPSend) refers to printfa.o(i.__0printf) for __2printf
    ml302.o(i.ML302_TCPSend) refers to delay.o(i.delay_ms) for delay_ms
    ml302.o(i.ML302_TCPSend) refers to strstr.o(.text) for strstr
    ml302.o(i.ML302_TCPSend) refers to usart2.o(i.Clear_Buffer) for Clear_Buffer
    ml302.o(i.ML302_TCPSend) refers to usart2.o(.bss) for RxBuffer
    ml302.o(i.ML302_TCPSend) refers to ml302.o(.data) for strx_LBS
    mq2_adc.o(i.Get_MQ2_ADC) refers to stm32f10x_adc.o(i.ADC_RegularChannelConfig) for ADC_RegularChannelConfig
    mq2_adc.o(i.Get_MQ2_ADC) refers to stm32f10x_adc.o(i.ADC_SoftwareStartConvCmd) for ADC_SoftwareStartConvCmd
    mq2_adc.o(i.Get_MQ2_ADC) refers to stm32f10x_adc.o(i.ADC_GetFlagStatus) for ADC_GetFlagStatus
    mq2_adc.o(i.Get_MQ2_ADC) refers to stm32f10x_adc.o(i.ADC_GetConversionValue) for ADC_GetConversionValue
    mq2_adc.o(i.Get_MQ2_ADC_Average) refers to mq2_adc.o(i.Get_MQ2_ADC) for Get_MQ2_ADC
    mq2_adc.o(i.Get_MQ2_ADC_Average) refers to delay.o(i.delay_ms) for delay_ms
    mq2_adc.o(i.MQ2_ADC_Init) refers to stm32f10x_rcc.o(i.RCC_APB2PeriphClockCmd) for RCC_APB2PeriphClockCmd
    mq2_adc.o(i.MQ2_ADC_Init) refers to stm32f10x_rcc.o(i.RCC_ADCCLKConfig) for RCC_ADCCLKConfig
    mq2_adc.o(i.MQ2_ADC_Init) refers to stm32f10x_gpio.o(i.GPIO_Init) for GPIO_Init
    mq2_adc.o(i.MQ2_ADC_Init) refers to stm32f10x_adc.o(i.ADC_DeInit) for ADC_DeInit
    mq2_adc.o(i.MQ2_ADC_Init) refers to stm32f10x_adc.o(i.ADC_Init) for ADC_Init
    mq2_adc.o(i.MQ2_ADC_Init) refers to stm32f10x_adc.o(i.ADC_Cmd) for ADC_Cmd
    mq2_adc.o(i.MQ2_ADC_Init) refers to stm32f10x_adc.o(i.ADC_ResetCalibration) for ADC_ResetCalibration
    mq2_adc.o(i.MQ2_ADC_Init) refers to stm32f10x_adc.o(i.ADC_GetResetCalibrationStatus) for ADC_GetResetCalibrationStatus
    mq2_adc.o(i.MQ2_ADC_Init) refers to stm32f10x_adc.o(i.ADC_StartCalibration) for ADC_StartCalibration
    mq2_adc.o(i.MQ2_ADC_Init) refers to stm32f10x_adc.o(i.ADC_GetCalibrationStatus) for ADC_GetCalibrationStatus
    mq2_adc.o(i.MQ2_GetPPM) refers to mq2_adc.o(i.Get_MQ2_ADC_Average) for Get_MQ2_ADC_Average
    mq2_adc.o(i.MQ2_GetPPM) refers to ffltui.o(.text) for __aeabi_ui2f
    mq2_adc.o(i.MQ2_GetPPM) refers to fmul.o(.text) for __aeabi_fmul
    mq2_adc.o(i.MQ2_GetPPM) refers to fdiv.o(.text) for __aeabi_fdiv
    mq2_adc.o(i.MQ2_GetPPM) refers to f2d.o(.text) for __aeabi_f2d
    mq2_adc.o(i.MQ2_GetPPM) refers to dadd.o(.text) for __aeabi_dadd
    mq2_adc.o(i.MQ2_GetPPM) refers to dmul.o(.text) for __aeabi_dmul
    mq2_adc.o(i.MQ2_GetPPM) refers to dfixi.o(.text) for __aeabi_d2iz
    mq2_adc.o(i.MQ2_GetPPM) refers to fflti.o(.text) for __aeabi_i2f
    mq2_adc.o(i.MQ2_GetPPM) refers to fadd.o(.text) for __aeabi_fsub
    mq2_adc.o(i.MQ2_GetPPM) refers to pow.o(i.pow) for pow
    mq2_adc.o(i.MQ2_GetPPM) refers to ddiv.o(.text) for __aeabi_ddiv
    mq2_adc.o(i.MQ2_GetPPM) refers to d2f.o(.text) for __aeabi_d2f
    mq2_adc.o(i.MQ2_GetPPM) refers to mq2_adc.o(.data) for times_MQ2
    mq2_adc.o(i.MQ2_cumlate) refers to pow.o(i.pow) for pow
    mq2_adc.o(i.MQ2_cumlate) refers to f2d.o(.text) for __aeabi_f2d
    mq2_adc.o(i.MQ2_cumlate) refers to ddiv.o(.text) for __aeabi_ddiv
    mq2_adc.o(i.MQ2_cumlate) refers to d2f.o(.text) for __aeabi_d2f
    mq2_adc.o(i.MQ2_cumlate) refers to mq2_adc.o(.data) for R0
    oled.o(i.IIC_Start_oled) refers to stm32f10x_gpio.o(i.GPIO_SetBits) for GPIO_SetBits
    oled.o(i.IIC_Start_oled) refers to stm32f10x_gpio.o(i.GPIO_ResetBits) for GPIO_ResetBits
    oled.o(i.IIC_Stop_oled) refers to stm32f10x_gpio.o(i.GPIO_SetBits) for GPIO_SetBits
    oled.o(i.IIC_Stop_oled) refers to stm32f10x_gpio.o(i.GPIO_ResetBits) for GPIO_ResetBits
    oled.o(i.IIC_Wait_Ack_oled) refers to stm32f10x_gpio.o(i.GPIO_SetBits) for GPIO_SetBits
    oled.o(i.IIC_Wait_Ack_oled) refers to stm32f10x_gpio.o(i.GPIO_ResetBits) for GPIO_ResetBits
    oled.o(i.OLED_Clear) refers to oled.o(i.OLED_WR_Byte) for OLED_WR_Byte
    oled.o(i.OLED_Display_Off) refers to oled.o(i.OLED_WR_Byte) for OLED_WR_Byte
    oled.o(i.OLED_Display_On) refers to oled.o(i.OLED_WR_Byte) for OLED_WR_Byte
    oled.o(i.OLED_DrawBMP) refers to oled.o(i.OLED_Set_Pos) for OLED_Set_Pos
    oled.o(i.OLED_DrawBMP) refers to oled.o(i.OLED_WR_Byte) for OLED_WR_Byte
    oled.o(i.OLED_Init) refers to stm32f10x_rcc.o(i.RCC_APB2PeriphClockCmd) for RCC_APB2PeriphClockCmd
    oled.o(i.OLED_Init) refers to stm32f10x_gpio.o(i.GPIO_Init) for GPIO_Init
    oled.o(i.OLED_Init) refers to stm32f10x_gpio.o(i.GPIO_SetBits) for GPIO_SetBits
    oled.o(i.OLED_Init) refers to delay.o(i.delay_ms) for delay_ms
    oled.o(i.OLED_Init) refers to oled.o(i.OLED_WR_Byte) for OLED_WR_Byte
    oled.o(i.OLED_On) refers to oled.o(i.OLED_WR_Byte) for OLED_WR_Byte
    oled.o(i.OLED_Set_Pos) refers to oled.o(i.OLED_WR_Byte) for OLED_WR_Byte
    oled.o(i.OLED_ShowCHinese) refers to oled.o(i.OLED_Set_Pos) for OLED_Set_Pos
    oled.o(i.OLED_ShowCHinese) refers to oled.o(i.OLED_WR_Byte) for OLED_WR_Byte
    oled.o(i.OLED_ShowCHinese) refers to oled.o(.data) for Hzk
    oled.o(i.OLED_ShowChar) refers to oled.o(i.OLED_Set_Pos) for OLED_Set_Pos
    oled.o(i.OLED_ShowChar) refers to oled.o(i.OLED_WR_Byte) for OLED_WR_Byte
    oled.o(i.OLED_ShowChar) refers to oled.o(.constdata) for F8X16
    oled.o(i.OLED_ShowNum) refers to oled.o(i.oled_pow) for oled_pow
    oled.o(i.OLED_ShowNum) refers to oled.o(i.OLED_ShowChar) for OLED_ShowChar
    oled.o(i.OLED_ShowString) refers to oled.o(i.OLED_ShowChar) for OLED_ShowChar
    oled.o(i.OLED_Showdecimal) refers to ffixi.o(.text) for __aeabi_f2iz
    oled.o(i.OLED_Showdecimal) refers to oled.o(i.oled_pow) for oled_pow
    oled.o(i.OLED_Showdecimal) refers to oled.o(i.OLED_ShowChar) for OLED_ShowChar
    oled.o(i.OLED_Showdecimal) refers to ffltui.o(.text) for __aeabi_ui2f
    oled.o(i.OLED_Showdecimal) refers to fflti.o(.text) for __aeabi_i2f
    oled.o(i.OLED_Showdecimal) refers to fadd.o(.text) for __aeabi_frsub
    oled.o(i.OLED_Showdecimal) refers to fmul.o(.text) for __aeabi_fmul
    oled.o(i.OLED_WR_Byte) refers to oled.o(i.Write_IIC_Data) for Write_IIC_Data
    oled.o(i.OLED_WR_Byte) refers to oled.o(i.Write_IIC_Command) for Write_IIC_Command
    oled.o(i.Write_IIC_Byte) refers to stm32f10x_gpio.o(i.GPIO_ResetBits) for GPIO_ResetBits
    oled.o(i.Write_IIC_Byte) refers to stm32f10x_gpio.o(i.GPIO_SetBits) for GPIO_SetBits
    oled.o(i.Write_IIC_Command) refers to oled.o(i.IIC_Start_oled) for IIC_Start_oled
    oled.o(i.Write_IIC_Command) refers to oled.o(i.Write_IIC_Byte) for Write_IIC_Byte
    oled.o(i.Write_IIC_Command) refers to oled.o(i.IIC_Wait_Ack_oled) for IIC_Wait_Ack_oled
    oled.o(i.Write_IIC_Command) refers to oled.o(i.IIC_Stop_oled) for IIC_Stop_oled
    oled.o(i.Write_IIC_Data) refers to oled.o(i.IIC_Start_oled) for IIC_Start_oled
    oled.o(i.Write_IIC_Data) refers to oled.o(i.Write_IIC_Byte) for Write_IIC_Byte
    oled.o(i.Write_IIC_Data) refers to oled.o(i.IIC_Wait_Ack_oled) for IIC_Wait_Ack_oled
    oled.o(i.Write_IIC_Data) refers to oled.o(i.IIC_Stop_oled) for IIC_Stop_oled
    oled.o(i.fill_picture) refers to oled.o(i.OLED_WR_Byte) for OLED_WR_Byte
    oled.o(i.test) refers to oled.o(i.IIC_Start_oled) for IIC_Start_oled
    oled.o(i.test) refers to oled.o(i.Write_IIC_Byte) for Write_IIC_Byte
    oled.o(i.test) refers to oled.o(i.IIC_Wait_Ack_oled) for IIC_Wait_Ack_oled
    oled.o(i.test) refers to oled.o(i.IIC_Stop_oled) for IIC_Stop_oled
    sgp30.o(i.SDA_IN) refers to stm32f10x_gpio.o(i.GPIO_Init) for GPIO_Init
    sgp30.o(i.SDA_OUT) refers to stm32f10x_gpio.o(i.GPIO_Init) for GPIO_Init
    sgp30.o(i.SGP30_GPIO_Init) refers to stm32f10x_rcc.o(i.RCC_APB2PeriphClockCmd) for RCC_APB2PeriphClockCmd
    sgp30.o(i.SGP30_GPIO_Init) refers to stm32f10x_gpio.o(i.GPIO_Init) for GPIO_Init
    sgp30.o(i.SGP30_IIC_Ack) refers to sgp30.o(i.SDA_OUT) for SDA_OUT
    sgp30.o(i.SGP30_IIC_Ack) refers to delay.o(i.delay_us) for delay_us
    sgp30.o(i.SGP30_IIC_NAck) refers to sgp30.o(i.SDA_OUT) for SDA_OUT
    sgp30.o(i.SGP30_IIC_NAck) refers to delay.o(i.delay_us) for delay_us
    sgp30.o(i.SGP30_IIC_Read_Byte) refers to sgp30.o(i.SDA_IN) for SDA_IN
    sgp30.o(i.SGP30_IIC_Read_Byte) refers to delay.o(i.delay_us) for delay_us
    sgp30.o(i.SGP30_IIC_Read_Byte) refers to stm32f10x_gpio.o(i.GPIO_ReadInputDataBit) for GPIO_ReadInputDataBit
    sgp30.o(i.SGP30_IIC_Read_Byte) refers to sgp30.o(i.SGP30_IIC_NAck) for SGP30_IIC_NAck
    sgp30.o(i.SGP30_IIC_Read_Byte) refers to sgp30.o(i.SGP30_IIC_Ack) for SGP30_IIC_Ack
    sgp30.o(i.SGP30_IIC_Send_Byte) refers to sgp30.o(i.SDA_OUT) for SDA_OUT
    sgp30.o(i.SGP30_IIC_Send_Byte) refers to delay.o(i.delay_us) for delay_us
    sgp30.o(i.SGP30_IIC_Start) refers to sgp30.o(i.SDA_OUT) for SDA_OUT
    sgp30.o(i.SGP30_IIC_Start) refers to delay.o(i.delay_us) for delay_us
    sgp30.o(i.SGP30_IIC_Stop) refers to sgp30.o(i.SDA_OUT) for SDA_OUT
    sgp30.o(i.SGP30_IIC_Stop) refers to delay.o(i.delay_us) for delay_us
    sgp30.o(i.SGP30_IIC_Wait_Ack) refers to sgp30.o(i.SDA_IN) for SDA_IN
    sgp30.o(i.SGP30_IIC_Wait_Ack) refers to delay.o(i.delay_us) for delay_us
    sgp30.o(i.SGP30_IIC_Wait_Ack) refers to sgp30.o(i.SGP30_IIC_Stop) for SGP30_IIC_Stop
    sgp30.o(i.SGP30_IIC_Wait_Ack) refers to stm32f10x_gpio.o(i.GPIO_ReadInputDataBit) for GPIO_ReadInputDataBit
    sgp30.o(i.SGP30_Init) refers to sgp30.o(i.SGP30_GPIO_Init) for SGP30_GPIO_Init
    sgp30.o(i.SGP30_Init) refers to sgp30.o(i.SGP30_Write) for SGP30_Write
    sgp30.o(i.SGP30_Read) refers to sgp30.o(i.SGP30_IIC_Start) for SGP30_IIC_Start
    sgp30.o(i.SGP30_Read) refers to sgp30.o(i.SGP30_IIC_Send_Byte) for SGP30_IIC_Send_Byte
    sgp30.o(i.SGP30_Read) refers to sgp30.o(i.SGP30_IIC_Wait_Ack) for SGP30_IIC_Wait_Ack
    sgp30.o(i.SGP30_Read) refers to sgp30.o(i.SGP30_IIC_Read_Byte) for SGP30_IIC_Read_Byte
    sgp30.o(i.SGP30_Read) refers to sgp30.o(i.SGP30_IIC_Stop) for SGP30_IIC_Stop
    sgp30.o(i.SGP30_Write) refers to sgp30.o(i.SGP30_IIC_Start) for SGP30_IIC_Start
    sgp30.o(i.SGP30_Write) refers to sgp30.o(i.SGP30_IIC_Send_Byte) for SGP30_IIC_Send_Byte
    sgp30.o(i.SGP30_Write) refers to sgp30.o(i.SGP30_IIC_Wait_Ack) for SGP30_IIC_Wait_Ack
    sgp30.o(i.SGP30_Write) refers to sgp30.o(i.SGP30_IIC_Stop) for SGP30_IIC_Stop
    sgp30.o(i.SGP30_Write) refers to delay.o(i.delay_ms) for delay_ms
    sht30.o(i.IIC_ACK) refers to sht30.o(i.SHT30_Out) for SHT30_Out
    sht30.o(i.IIC_ACK) refers to delay.o(i.delay_us) for delay_us
    sht30.o(i.IIC_NACK) refers to sht30.o(i.SHT30_Out) for SHT30_Out
    sht30.o(i.IIC_NACK) refers to delay.o(i.delay_us) for delay_us
    sht30.o(i.IIC_RcvByte) refers to sht30.o(i.SHT30_In) for SHT30_In
    sht30.o(i.IIC_RcvByte) refers to delay.o(i.delay_us) for delay_us
    sht30.o(i.IIC_SendByte) refers to sht30.o(i.SHT30_Out) for SHT30_Out
    sht30.o(i.IIC_SendByte) refers to delay.o(i.delay_us) for delay_us
    sht30.o(i.IIC_Start) refers to sht30.o(i.SHT30_Out) for SHT30_Out
    sht30.o(i.IIC_Start) refers to delay.o(i.delay_us) for delay_us
    sht30.o(i.IIC_Stop) refers to sht30.o(i.SHT30_Out) for SHT30_Out
    sht30.o(i.IIC_Stop) refers to delay.o(i.delay_us) for delay_us
    sht30.o(i.IIC_wait_ACK) refers to sht30.o(i.SHT30_Out) for SHT30_Out
    sht30.o(i.IIC_wait_ACK) refers to delay.o(i.delay_us) for delay_us
    sht30.o(i.IIC_wait_ACK) refers to sht30.o(i.SHT30_In) for SHT30_In
    sht30.o(i.SHT30_In) refers to stm32f10x_gpio.o(i.GPIO_Init) for GPIO_Init
    sht30.o(i.SHT30_Init) refers to stm32f10x_rcc.o(i.RCC_APB2PeriphClockCmd) for RCC_APB2PeriphClockCmd
    sht30.o(i.SHT30_Init) refers to stm32f10x_gpio.o(i.GPIO_Init) for GPIO_Init
    sht30.o(i.SHT30_Out) refers to stm32f10x_gpio.o(i.GPIO_Init) for GPIO_Init
    sht30.o(i.SHT30_read_result) refers to sht30.o(i.IIC_Start) for IIC_Start
    sht30.o(i.SHT30_read_result) refers to sht30.o(i.IIC_SendByte) for IIC_SendByte
    sht30.o(i.SHT30_read_result) refers to sht30.o(i.IIC_wait_ACK) for IIC_wait_ACK
    sht30.o(i.SHT30_read_result) refers to sht30.o(i.IIC_Stop) for IIC_Stop
    sht30.o(i.SHT30_read_result) refers to delay.o(i.delay_ms) for delay_ms
    sht30.o(i.SHT30_read_result) refers to sht30.o(i.IIC_RcvByte) for IIC_RcvByte
    sht30.o(i.SHT30_read_result) refers to sht30.o(i.IIC_ACK) for IIC_ACK
    sht30.o(i.SHT30_read_result) refers to sht30.o(i.IIC_NACK) for IIC_NACK
    timer_mq2.o(i.TIM7_IRQHandler) refers to stm32f10x_tim.o(i.TIM_GetITStatus) for TIM_GetITStatus
    timer_mq2.o(i.TIM7_IRQHandler) refers to stm32f10x_tim.o(i.TIM_ClearITPendingBit) for TIM_ClearITPendingBit
    timer_mq2.o(i.TIM7_IRQHandler) refers to mq2_adc.o(.data) for times_MQ2
    timer_mq2.o(i.TIM7_Init) refers to stm32f10x_rcc.o(i.RCC_APB1PeriphClockCmd) for RCC_APB1PeriphClockCmd
    timer_mq2.o(i.TIM7_Init) refers to stm32f10x_tim.o(i.TIM_TimeBaseInit) for TIM_TimeBaseInit
    timer_mq2.o(i.TIM7_Init) refers to stm32f10x_tim.o(i.TIM_ITConfig) for TIM_ITConfig
    timer_mq2.o(i.TIM7_Init) refers to stm32f10x_tim.o(i.TIM_Cmd) for TIM_Cmd
    timer_mq2.o(i.TIM7_Init) refers to misc.o(i.NVIC_Init) for NVIC_Init
    uart4.o(i.UART4_IRQHandler) refers to stm32f10x_usart.o(i.USART_GetITStatus) for USART_GetITStatus
    uart4.o(i.UART4_IRQHandler) refers to stm32f10x_usart.o(i.USART_ReceiveData) for USART_ReceiveData
    uart4.o(i.UART4_IRQHandler) refers to memseta.o(.text) for __aeabi_memclr
    uart4.o(i.UART4_IRQHandler) refers to memcpya.o(.text) for __aeabi_memcpy
    uart4.o(i.UART4_IRQHandler) refers to hlk_ld2410c.o(i.DataGet_LD2410C) for DataGet_LD2410C
    uart4.o(i.UART4_IRQHandler) refers to uart4.o(.data) for flag_start_LD2410C
    uart4.o(i.UART4_IRQHandler) refers to hlk_ld2410c.o(.bss) for RX_Data_LD2410C
    uart4.o(i.u4_printf) refers to printfa.o(i.__0vsprintf) for vsprintf
    uart4.o(i.u4_printf) refers to stm32f10x_usart.o(i.USART_GetFlagStatus) for USART_GetFlagStatus
    uart4.o(i.u4_printf) refers to stm32f10x_usart.o(i.USART_SendData) for USART_SendData
    uart4.o(i.u4_printf) refers to uart4.o(.bss) for UART4_TX_BUF
    uart4.o(i.uart4_init) refers to stm32f10x_rcc.o(i.RCC_APB2PeriphClockCmd) for RCC_APB2PeriphClockCmd
    uart4.o(i.uart4_init) refers to stm32f10x_rcc.o(i.RCC_APB1PeriphClockCmd) for RCC_APB1PeriphClockCmd
    uart4.o(i.uart4_init) refers to stm32f10x_usart.o(i.USART_DeInit) for USART_DeInit
    uart4.o(i.uart4_init) refers to stm32f10x_gpio.o(i.GPIO_Init) for GPIO_Init
    uart4.o(i.uart4_init) refers to stm32f10x_usart.o(i.USART_Init) for USART_Init
    uart4.o(i.uart4_init) refers to stm32f10x_usart.o(i.USART_Cmd) for USART_Cmd
    uart4.o(i.uart4_init) refers to stm32f10x_usart.o(i.USART_ITConfig) for USART_ITConfig
    uart4.o(i.uart4_init) refers to misc.o(i.NVIC_Init) for NVIC_Init
    uart4.o(i.uart4_init) refers to uart4.o(.bss) for USART_InitStructure
    uart4.o(i.uart4_init) refers to hlk_ld2410c.o(.bss) for RX_Data_LD2410C
    uart5.o(i.NVIC_Configuration) refers to misc.o(i.NVIC_PriorityGroupConfig) for NVIC_PriorityGroupConfig
    uart5.o(i.NVIC_Configuration) refers to misc.o(i.NVIC_Init) for NVIC_Init
    uart5.o(i.UART5_Config) refers to stm32f10x_rcc.o(i.RCC_APB2PeriphClockCmd) for RCC_APB2PeriphClockCmd
    uart5.o(i.UART5_Config) refers to stm32f10x_rcc.o(i.RCC_APB1PeriphClockCmd) for RCC_APB1PeriphClockCmd
    uart5.o(i.UART5_Config) refers to stm32f10x_gpio.o(i.GPIO_Init) for GPIO_Init
    uart5.o(i.UART5_Config) refers to stm32f10x_usart.o(i.USART_Init) for USART_Init
    uart5.o(i.UART5_Config) refers to uart5.o(i.NVIC_Configuration) for NVIC_Configuration
    uart5.o(i.UART5_Config) refers to stm32f10x_usart.o(i.USART_ITConfig) for USART_ITConfig
    uart5.o(i.UART5_Config) refers to stm32f10x_usart.o(i.USART_Cmd) for USART_Cmd
    uart5.o(i.UART5_IRQHandler) refers to stm32f10x_gpio.o(i.GPIO_ResetBits) for GPIO_ResetBits
    uart5.o(i.UART5_IRQHandler) refers to stm32f10x_usart.o(i.USART_GetITStatus) for USART_GetITStatus
    uart5.o(i.UART5_IRQHandler) refers to stm32f10x_usart.o(i.USART_ReceiveData) for USART_ReceiveData
    uart5.o(i.UART5_IRQHandler) refers to stm32f10x_usart.o(i.USART_SendData) for USART_SendData
    uart5.o(i.UART5_IRQHandler) refers to stm32f10x_gpio.o(i.GPIO_SetBits) for GPIO_SetBits
    uart5.o(i.Uart5_SendByte) refers to stm32f10x_usart.o(i.USART_SendData) for USART_SendData
    uart5.o(i.Uart5_SendByte) refers to stm32f10x_usart.o(i.USART_GetFlagStatus) for USART_GetFlagStatus
    uart5.o(i.Uart5_SendString) refers to uart5.o(i.Uart5_SendByte) for Uart5_SendByte
    uart5.o(i.Uart5_SendString) refers to stm32f10x_usart.o(i.USART_GetFlagStatus) for USART_GetFlagStatus
    usart2.o(i.Clear_Buffer) refers to usart.o(i.Uart1_SendStr) for Uart1_SendStr
    usart2.o(i.Clear_Buffer) refers to wdg.o(i.IWDG_Feed) for IWDG_Feed
    usart2.o(i.Clear_Buffer) refers to usart2.o(.bss) for RxBuffer
    usart2.o(i.Clear_Buffer) refers to usart2.o(.data) for RxCounter
    usart2.o(i.Clear_Buffer_separate) refers to wdg.o(i.IWDG_Feed) for IWDG_Feed
    usart2.o(i.Clear_Buffer_separate) refers to usart2.o(.bss) for RxBuffer
    usart2.o(i.Clear_Buffer_separate) refers to usart2.o(.data) for RxCounter
    usart2.o(i.UART2_send_byte) refers to stm32f10x_usart.o(i.USART_GetFlagStatus) for USART_GetFlagStatus
    usart2.o(i.UART2_send_byte) refers to stm32f10x_usart.o(i.USART_SendData) for USART_SendData
    usart2.o(i.USART2_IRQHandler) refers to stm32f10x_usart.o(i.USART_GetITStatus) for USART_GetITStatus
    usart2.o(i.USART2_IRQHandler) refers to stm32f10x_usart.o(i.USART_ReceiveData) for USART_ReceiveData
    usart2.o(i.USART2_IRQHandler) refers to usart2.o(.data) for RxCounter
    usart2.o(i.USART2_IRQHandler) refers to usart2.o(.bss) for RxBuffer
    usart2.o(i.uart2_init) refers to stm32f10x_rcc.o(i.RCC_APB2PeriphClockCmd) for RCC_APB2PeriphClockCmd
    usart2.o(i.uart2_init) refers to stm32f10x_rcc.o(i.RCC_APB1PeriphClockCmd) for RCC_APB1PeriphClockCmd
    usart2.o(i.uart2_init) refers to stm32f10x_usart.o(i.USART_DeInit) for USART_DeInit
    usart2.o(i.uart2_init) refers to stm32f10x_gpio.o(i.GPIO_Init) for GPIO_Init
    usart2.o(i.uart2_init) refers to misc.o(i.NVIC_Init) for NVIC_Init
    usart2.o(i.uart2_init) refers to stm32f10x_usart.o(i.USART_Init) for USART_Init
    usart2.o(i.uart2_init) refers to stm32f10x_usart.o(i.USART_ITConfig) for USART_ITConfig
    usart2.o(i.uart2_init) refers to stm32f10x_usart.o(i.USART_Cmd) for USART_Cmd
    usart3.o(i.USART3_Configuration) refers to stm32f10x_usart.o(i.USART_DeInit) for USART_DeInit
    usart3.o(i.USART3_Configuration) refers to stm32f10x_usart.o(i.USART_Init) for USART_Init
    usart3.o(i.USART3_Configuration) refers to stm32f10x_usart.o(i.USART_ITConfig) for USART_ITConfig
    usart3.o(i.USART3_Configuration) refers to stm32f10x_usart.o(i.USART_Cmd) for USART_Cmd
    usart3.o(i.USART3_GPIO_Configuration) refers to stm32f10x_gpio.o(i.GPIO_Init) for GPIO_Init
    usart3.o(i.USART3_IRQHandler) refers to stm32f10x_usart.o(i.USART_GetITStatus) for USART_GetITStatus
    usart3.o(i.USART3_IRQHandler) refers to stm32f10x_usart.o(i.USART_ReceiveData) for USART_ReceiveData
    usart3.o(i.USART3_IRQHandler) refers to hlk_tx510.o(i.HLK_TX510_Receive_Byte) for HLK_TX510_Receive_Byte
    usart3.o(i.USART3_IRQHandler) refers to hlk_tx510.o(.bss) for RX_Data_TX510
    usart3.o(i.USART3_Init) refers to usart3.o(i.USART3_RCC_Configuration) for USART3_RCC_Configuration
    usart3.o(i.USART3_Init) refers to usart3.o(i.USART3_GPIO_Configuration) for USART3_GPIO_Configuration
    usart3.o(i.USART3_Init) refers to usart3.o(i.USART3_Configuration) for USART3_Configuration
    usart3.o(i.USART3_Init) refers to usart3.o(i.USART3_NVIC_Configuration) for USART3_NVIC_Configuration
    usart3.o(i.USART3_Init) refers to hlk_tx510.o(i.HLK_TX510_ClearDate) for HLK_TX510_ClearDate
    usart3.o(i.USART3_NVIC_Configuration) refers to misc.o(i.NVIC_Init) for NVIC_Init
    usart3.o(i.USART3_NVIC_Configuration) refers to deal_with.o(.data) for NVICPriority_Structure
    usart3.o(i.USART3_RCC_Configuration) refers to stm32f10x_rcc.o(i.RCC_APB2PeriphClockCmd) for RCC_APB2PeriphClockCmd
    usart3.o(i.USART3_RCC_Configuration) refers to stm32f10x_rcc.o(i.RCC_APB1PeriphClockCmd) for RCC_APB1PeriphClockCmd
    usart3.o(i.USART3_SendByte) refers to stm32f10x_usart.o(i.USART_SendData) for USART_SendData
    usart3.o(i.USART3_SendByte) refers to stm32f10x_usart.o(i.USART_GetFlagStatus) for USART_GetFlagStatus
    pow.o(i.__softfp_pow) refers (Special) to iusefp.o(.text) for __I$use$fp
    pow.o(i.__softfp_pow) refers to pow.o(i.pow) for pow
    pow.o(i.pow) refers (Special) to iusefp.o(.text) for __I$use$fp
    pow.o(i.pow) refers to dunder.o(i.__mathlib_dbl_infnan2) for __mathlib_dbl_infnan2
    pow.o(i.pow) refers to errno.o(i.__set_errno) for __set_errno
    pow.o(i.pow) refers to dunder.o(i.__mathlib_dbl_divzero) for __mathlib_dbl_divzero
    pow.o(i.pow) refers to ddiv.o(.text) for __aeabi_ddiv
    pow.o(i.pow) refers to sqrt.o(i.sqrt) for sqrt
    pow.o(i.pow) refers to dmul.o(.text) for __aeabi_dmul
    pow.o(i.pow) refers to dflti.o(.text) for __aeabi_i2d
    pow.o(i.pow) refers to dunder.o(i.__mathlib_dbl_invalid) for __mathlib_dbl_invalid
    pow.o(i.pow) refers to dunder.o(i.__mathlib_dbl_overflow) for __mathlib_dbl_overflow
    pow.o(i.pow) refers to dunder.o(i.__mathlib_dbl_underflow) for __mathlib_dbl_underflow
    pow.o(i.pow) refers to dadd.o(.text) for __aeabi_dsub
    pow.o(i.pow) refers to dscalb.o(.text) for __ARM_scalbn
    pow.o(i.pow) refers to qnan.o(.constdata) for __mathlib_zero
    pow.o(i.pow) refers to poly.o(i.__kernel_poly) for __kernel_poly
    pow.o(i.pow) refers to cdrcmple.o(.text) for __aeabi_cdrcmple
    pow.o(i.pow) refers to pow.o(.constdata) for .constdata
    pow.o(i.pow) refers to fpclassify.o(i.__ARM_fpclassify) for __ARM_fpclassify
    pow.o(.constdata) refers (Special) to iusefp.o(.text) for __I$use$fp
    pow_x.o(i.____softfp_pow$lsc) refers (Special) to iusefp.o(.text) for __I$use$fp
    pow_x.o(i.____softfp_pow$lsc) refers to pow_x.o(i.__pow$lsc) for __pow$lsc
    pow_x.o(i.__pow$lsc) refers (Special) to iusefp.o(.text) for __I$use$fp
    pow_x.o(i.__pow$lsc) refers to dunder.o(i.__mathlib_dbl_infnan2) for __mathlib_dbl_infnan2
    pow_x.o(i.__pow$lsc) refers to errno.o(i.__set_errno) for __set_errno
    pow_x.o(i.__pow$lsc) refers to ddiv.o(.text) for __aeabi_ddiv
    pow_x.o(i.__pow$lsc) refers to sqrt.o(i.sqrt) for sqrt
    pow_x.o(i.__pow$lsc) refers to dmul.o(.text) for __aeabi_dmul
    pow_x.o(i.__pow$lsc) refers to dflti.o(.text) for __aeabi_i2d
    pow_x.o(i.__pow$lsc) refers to dadd.o(.text) for __aeabi_dsub
    pow_x.o(i.__pow$lsc) refers to dscalb.o(.text) for __ARM_scalbn
    pow_x.o(i.__pow$lsc) refers to qnan.o(.constdata) for __mathlib_zero
    pow_x.o(i.__pow$lsc) refers to poly.o(i.__kernel_poly) for __kernel_poly
    pow_x.o(i.__pow$lsc) refers to cdrcmple.o(.text) for __aeabi_cdrcmple
    pow_x.o(i.__pow$lsc) refers to pow_x.o(.constdata) for .constdata
    pow_x.o(.constdata) refers (Special) to iusefp.o(.text) for __I$use$fp
    entry.o(.ARM.Collect$$$$00000000) refers (Special) to entry10a.o(.ARM.Collect$$$$0000000D) for __rt_final_cpp
    entry.o(.ARM.Collect$$$$00000000) refers (Special) to entry11a.o(.ARM.Collect$$$$0000000F) for __rt_final_exit
    entry.o(.ARM.Collect$$$$00000000) refers (Special) to entry7b.o(.ARM.Collect$$$$00000008) for _main_clock
    entry.o(.ARM.Collect$$$$00000000) refers (Special) to entry8b.o(.ARM.Collect$$$$0000000A) for _main_cpp_init
    entry.o(.ARM.Collect$$$$00000000) refers (Special) to entry9a.o(.ARM.Collect$$$$0000000B) for _main_init
    entry.o(.ARM.Collect$$$$00000000) refers (Special) to entry5.o(.ARM.Collect$$$$00000004) for _main_scatterload
    entry.o(.ARM.Collect$$$$00000000) refers (Special) to entry2.o(.ARM.Collect$$$$00000001) for _main_stk
    printfb.o(i.__0fprintf$bare) refers to printfb.o(i._printf_core) for _printf_core
    printfb.o(i.__0fprintf$bare) refers to usart2.o(i.fputc) for fputc
    printfb.o(i.__0printf$bare) refers to printfb.o(i._printf_core) for _printf_core
    printfb.o(i.__0printf$bare) refers to usart2.o(i.fputc) for fputc
    printfb.o(i.__0printf$bare) refers to usart2.o(.data) for __stdout
    printfb.o(i.__0snprintf$bare) refers to printfb.o(i._printf_core) for _printf_core
    printfb.o(i.__0snprintf$bare) refers to printfb.o(i._snputc) for _snputc
    printfb.o(i.__0sprintf$bare) refers to printfb.o(i._printf_core) for _printf_core
    printfb.o(i.__0sprintf$bare) refers to printfb.o(i._sputc) for _sputc
    printfb.o(i.__0vfprintf$bare) refers to printfb.o(i._printf_core) for _printf_core
    printfb.o(i.__0vfprintf$bare) refers to usart2.o(i.fputc) for fputc
    printfb.o(i.__0vprintf$bare) refers to printfb.o(i._printf_core) for _printf_core
    printfb.o(i.__0vprintf$bare) refers to usart2.o(i.fputc) for fputc
    printfb.o(i.__0vprintf$bare) refers to usart2.o(.data) for __stdout
    printfb.o(i.__0vsnprintf$bare) refers to printfb.o(i._printf_core) for _printf_core
    printfb.o(i.__0vsnprintf$bare) refers to printfb.o(i._snputc) for _snputc
    printfb.o(i.__0vsprintf$bare) refers to printfb.o(i._printf_core) for _printf_core
    printfb.o(i.__0vsprintf$bare) refers to printfb.o(i._sputc) for _sputc
    printf0.o(i.__0fprintf$0) refers to printf0.o(i._printf_core) for _printf_core
    printf0.o(i.__0fprintf$0) refers to usart2.o(i.fputc) for fputc
    printf0.o(i.__0printf$0) refers to printf0.o(i._printf_core) for _printf_core
    printf0.o(i.__0printf$0) refers to usart2.o(i.fputc) for fputc
    printf0.o(i.__0printf$0) refers to usart2.o(.data) for __stdout
    printf0.o(i.__0snprintf$0) refers to printf0.o(i._printf_core) for _printf_core
    printf0.o(i.__0snprintf$0) refers to printf0.o(i._snputc) for _snputc
    printf0.o(i.__0sprintf$0) refers to printf0.o(i._printf_core) for _printf_core
    printf0.o(i.__0sprintf$0) refers to printf0.o(i._sputc) for _sputc
    printf0.o(i.__0vfprintf$0) refers to printf0.o(i._printf_core) for _printf_core
    printf0.o(i.__0vfprintf$0) refers to usart2.o(i.fputc) for fputc
    printf0.o(i.__0vprintf$0) refers to printf0.o(i._printf_core) for _printf_core
    printf0.o(i.__0vprintf$0) refers to usart2.o(i.fputc) for fputc
    printf0.o(i.__0vprintf$0) refers to usart2.o(.data) for __stdout
    printf0.o(i.__0vsnprintf$0) refers to printf0.o(i._printf_core) for _printf_core
    printf0.o(i.__0vsnprintf$0) refers to printf0.o(i._snputc) for _snputc
    printf0.o(i.__0vsprintf$0) refers to printf0.o(i._printf_core) for _printf_core
    printf0.o(i.__0vsprintf$0) refers to printf0.o(i._sputc) for _sputc
    printf1.o(i.__0fprintf$1) refers to printf1.o(i._printf_core) for _printf_core
    printf1.o(i.__0fprintf$1) refers to usart2.o(i.fputc) for fputc
    printf1.o(i.__0printf$1) refers to printf1.o(i._printf_core) for _printf_core
    printf1.o(i.__0printf$1) refers to usart2.o(i.fputc) for fputc
    printf1.o(i.__0printf$1) refers to usart2.o(.data) for __stdout
    printf1.o(i.__0snprintf$1) refers to printf1.o(i._printf_core) for _printf_core
    printf1.o(i.__0snprintf$1) refers to printf1.o(i._snputc) for _snputc
    printf1.o(i.__0sprintf$1) refers to printf1.o(i._printf_core) for _printf_core
    printf1.o(i.__0sprintf$1) refers to printf1.o(i._sputc) for _sputc
    printf1.o(i.__0vfprintf$1) refers to printf1.o(i._printf_core) for _printf_core
    printf1.o(i.__0vfprintf$1) refers to usart2.o(i.fputc) for fputc
    printf1.o(i.__0vprintf$1) refers to printf1.o(i._printf_core) for _printf_core
    printf1.o(i.__0vprintf$1) refers to usart2.o(i.fputc) for fputc
    printf1.o(i.__0vprintf$1) refers to usart2.o(.data) for __stdout
    printf1.o(i.__0vsnprintf$1) refers to printf1.o(i._printf_core) for _printf_core
    printf1.o(i.__0vsnprintf$1) refers to printf1.o(i._snputc) for _snputc
    printf1.o(i.__0vsprintf$1) refers to printf1.o(i._printf_core) for _printf_core
    printf1.o(i.__0vsprintf$1) refers to printf1.o(i._sputc) for _sputc
    printf1.o(i._printf_core) refers to uidiv.o(.text) for __aeabi_uidivmod
    printf2.o(i.__0fprintf$2) refers to printf2.o(i._printf_core) for _printf_core
    printf2.o(i.__0fprintf$2) refers to usart2.o(i.fputc) for fputc
    printf2.o(i.__0printf$2) refers to printf2.o(i._printf_core) for _printf_core
    printf2.o(i.__0printf$2) refers to usart2.o(i.fputc) for fputc
    printf2.o(i.__0printf$2) refers to usart2.o(.data) for __stdout
    printf2.o(i.__0snprintf$2) refers to printf2.o(i._printf_core) for _printf_core
    printf2.o(i.__0snprintf$2) refers to printf2.o(i._snputc) for _snputc
    printf2.o(i.__0sprintf$2) refers to printf2.o(i._printf_core) for _printf_core
    printf2.o(i.__0sprintf$2) refers to printf2.o(i._sputc) for _sputc
    printf2.o(i.__0vfprintf$2) refers to printf2.o(i._printf_core) for _printf_core
    printf2.o(i.__0vfprintf$2) refers to usart2.o(i.fputc) for fputc
    printf2.o(i.__0vprintf$2) refers to printf2.o(i._printf_core) for _printf_core
    printf2.o(i.__0vprintf$2) refers to usart2.o(i.fputc) for fputc
    printf2.o(i.__0vprintf$2) refers to usart2.o(.data) for __stdout
    printf2.o(i.__0vsnprintf$2) refers to printf2.o(i._printf_core) for _printf_core
    printf2.o(i.__0vsnprintf$2) refers to printf2.o(i._snputc) for _snputc
    printf2.o(i.__0vsprintf$2) refers to printf2.o(i._printf_core) for _printf_core
    printf2.o(i.__0vsprintf$2) refers to printf2.o(i._sputc) for _sputc
    printf3.o(i.__0fprintf$3) refers to printf3.o(i._printf_core) for _printf_core
    printf3.o(i.__0fprintf$3) refers to usart2.o(i.fputc) for fputc
    printf3.o(i.__0printf$3) refers to printf3.o(i._printf_core) for _printf_core
    printf3.o(i.__0printf$3) refers to usart2.o(i.fputc) for fputc
    printf3.o(i.__0printf$3) refers to usart2.o(.data) for __stdout
    printf3.o(i.__0snprintf$3) refers to printf3.o(i._printf_core) for _printf_core
    printf3.o(i.__0snprintf$3) refers to printf3.o(i._snputc) for _snputc
    printf3.o(i.__0sprintf$3) refers to printf3.o(i._printf_core) for _printf_core
    printf3.o(i.__0sprintf$3) refers to printf3.o(i._sputc) for _sputc
    printf3.o(i.__0vfprintf$3) refers to printf3.o(i._printf_core) for _printf_core
    printf3.o(i.__0vfprintf$3) refers to usart2.o(i.fputc) for fputc
    printf3.o(i.__0vprintf$3) refers to printf3.o(i._printf_core) for _printf_core
    printf3.o(i.__0vprintf$3) refers to usart2.o(i.fputc) for fputc
    printf3.o(i.__0vprintf$3) refers to usart2.o(.data) for __stdout
    printf3.o(i.__0vsnprintf$3) refers to printf3.o(i._printf_core) for _printf_core
    printf3.o(i.__0vsnprintf$3) refers to printf3.o(i._snputc) for _snputc
    printf3.o(i.__0vsprintf$3) refers to printf3.o(i._printf_core) for _printf_core
    printf3.o(i.__0vsprintf$3) refers to printf3.o(i._sputc) for _sputc
    printf3.o(i._printf_core) refers to uidiv.o(.text) for __aeabi_uidivmod
    printf4.o(i.__0fprintf$4) refers to printf4.o(i._printf_core) for _printf_core
    printf4.o(i.__0fprintf$4) refers to usart2.o(i.fputc) for fputc
    printf4.o(i.__0printf$4) refers to printf4.o(i._printf_core) for _printf_core
    printf4.o(i.__0printf$4) refers to usart2.o(i.fputc) for fputc
    printf4.o(i.__0printf$4) refers to usart2.o(.data) for __stdout
    printf4.o(i.__0snprintf$4) refers to printf4.o(i._printf_core) for _printf_core
    printf4.o(i.__0snprintf$4) refers to printf4.o(i._snputc) for _snputc
    printf4.o(i.__0sprintf$4) refers to printf4.o(i._printf_core) for _printf_core
    printf4.o(i.__0sprintf$4) refers to printf4.o(i._sputc) for _sputc
    printf4.o(i.__0vfprintf$4) refers to printf4.o(i._printf_core) for _printf_core
    printf4.o(i.__0vfprintf$4) refers to usart2.o(i.fputc) for fputc
    printf4.o(i.__0vprintf$4) refers to printf4.o(i._printf_core) for _printf_core
    printf4.o(i.__0vprintf$4) refers to usart2.o(i.fputc) for fputc
    printf4.o(i.__0vprintf$4) refers to usart2.o(.data) for __stdout
    printf4.o(i.__0vsnprintf$4) refers to printf4.o(i._printf_core) for _printf_core
    printf4.o(i.__0vsnprintf$4) refers to printf4.o(i._snputc) for _snputc
    printf4.o(i.__0vsprintf$4) refers to printf4.o(i._printf_core) for _printf_core
    printf4.o(i.__0vsprintf$4) refers to printf4.o(i._sputc) for _sputc
    printf4.o(i._printf_core) refers to uldiv.o(.text) for __aeabi_uldivmod
    printf5.o(i.__0fprintf$5) refers to printf5.o(i._printf_core) for _printf_core
    printf5.o(i.__0fprintf$5) refers to usart2.o(i.fputc) for fputc
    printf5.o(i.__0printf$5) refers to printf5.o(i._printf_core) for _printf_core
    printf5.o(i.__0printf$5) refers to usart2.o(i.fputc) for fputc
    printf5.o(i.__0printf$5) refers to usart2.o(.data) for __stdout
    printf5.o(i.__0snprintf$5) refers to printf5.o(i._printf_core) for _printf_core
    printf5.o(i.__0snprintf$5) refers to printf5.o(i._snputc) for _snputc
    printf5.o(i.__0sprintf$5) refers to printf5.o(i._printf_core) for _printf_core
    printf5.o(i.__0sprintf$5) refers to printf5.o(i._sputc) for _sputc
    printf5.o(i.__0vfprintf$5) refers to printf5.o(i._printf_core) for _printf_core
    printf5.o(i.__0vfprintf$5) refers to usart2.o(i.fputc) for fputc
    printf5.o(i.__0vprintf$5) refers to printf5.o(i._printf_core) for _printf_core
    printf5.o(i.__0vprintf$5) refers to usart2.o(i.fputc) for fputc
    printf5.o(i.__0vprintf$5) refers to usart2.o(.data) for __stdout
    printf5.o(i.__0vsnprintf$5) refers to printf5.o(i._printf_core) for _printf_core
    printf5.o(i.__0vsnprintf$5) refers to printf5.o(i._snputc) for _snputc
    printf5.o(i.__0vsprintf$5) refers to printf5.o(i._printf_core) for _printf_core
    printf5.o(i.__0vsprintf$5) refers to printf5.o(i._sputc) for _sputc
    printf5.o(i._printf_core) refers to uldiv.o(.text) for __aeabi_uldivmod
    printf6.o(i.__0fprintf$6) refers to printf6.o(i._printf_core) for _printf_core
    printf6.o(i.__0fprintf$6) refers to usart2.o(i.fputc) for fputc
    printf6.o(i.__0printf$6) refers to printf6.o(i._printf_core) for _printf_core
    printf6.o(i.__0printf$6) refers to usart2.o(i.fputc) for fputc
    printf6.o(i.__0printf$6) refers to usart2.o(.data) for __stdout
    printf6.o(i.__0snprintf$6) refers to printf6.o(i._printf_core) for _printf_core
    printf6.o(i.__0snprintf$6) refers to printf6.o(i._snputc) for _snputc
    printf6.o(i.__0sprintf$6) refers to printf6.o(i._printf_core) for _printf_core
    printf6.o(i.__0sprintf$6) refers to printf6.o(i._sputc) for _sputc
    printf6.o(i.__0vfprintf$6) refers to printf6.o(i._printf_core) for _printf_core
    printf6.o(i.__0vfprintf$6) refers to usart2.o(i.fputc) for fputc
    printf6.o(i.__0vprintf$6) refers to printf6.o(i._printf_core) for _printf_core
    printf6.o(i.__0vprintf$6) refers to usart2.o(i.fputc) for fputc
    printf6.o(i.__0vprintf$6) refers to usart2.o(.data) for __stdout
    printf6.o(i.__0vsnprintf$6) refers to printf6.o(i._printf_core) for _printf_core
    printf6.o(i.__0vsnprintf$6) refers to printf6.o(i._snputc) for _snputc
    printf6.o(i.__0vsprintf$6) refers to printf6.o(i._printf_core) for _printf_core
    printf6.o(i.__0vsprintf$6) refers to printf6.o(i._sputc) for _sputc
    printf6.o(i._printf_core) refers to printf6.o(i._printf_pre_padding) for _printf_pre_padding
    printf6.o(i._printf_core) refers to uidiv.o(.text) for __aeabi_uidivmod
    printf6.o(i._printf_core) refers to printf6.o(i._printf_post_padding) for _printf_post_padding
    printf7.o(i.__0fprintf$7) refers to printf7.o(i._printf_core) for _printf_core
    printf7.o(i.__0fprintf$7) refers to usart2.o(i.fputc) for fputc
    printf7.o(i.__0printf$7) refers to printf7.o(i._printf_core) for _printf_core
    printf7.o(i.__0printf$7) refers to usart2.o(i.fputc) for fputc
    printf7.o(i.__0printf$7) refers to usart2.o(.data) for __stdout
    printf7.o(i.__0snprintf$7) refers to printf7.o(i._printf_core) for _printf_core
    printf7.o(i.__0snprintf$7) refers to printf7.o(i._snputc) for _snputc
    printf7.o(i.__0sprintf$7) refers to printf7.o(i._printf_core) for _printf_core
    printf7.o(i.__0sprintf$7) refers to printf7.o(i._sputc) for _sputc
    printf7.o(i.__0vfprintf$7) refers to printf7.o(i._printf_core) for _printf_core
    printf7.o(i.__0vfprintf$7) refers to usart2.o(i.fputc) for fputc
    printf7.o(i.__0vprintf$7) refers to printf7.o(i._printf_core) for _printf_core
    printf7.o(i.__0vprintf$7) refers to usart2.o(i.fputc) for fputc
    printf7.o(i.__0vprintf$7) refers to usart2.o(.data) for __stdout
    printf7.o(i.__0vsnprintf$7) refers to printf7.o(i._printf_core) for _printf_core
    printf7.o(i.__0vsnprintf$7) refers to printf7.o(i._snputc) for _snputc
    printf7.o(i.__0vsprintf$7) refers to printf7.o(i._printf_core) for _printf_core
    printf7.o(i.__0vsprintf$7) refers to printf7.o(i._sputc) for _sputc
    printf7.o(i._printf_core) refers to printf7.o(i._printf_pre_padding) for _printf_pre_padding
    printf7.o(i._printf_core) refers to uldiv.o(.text) for __aeabi_uldivmod
    printf7.o(i._printf_core) refers to printf7.o(i._printf_post_padding) for _printf_post_padding
    printf8.o(i.__0fprintf$8) refers to printf8.o(i._printf_core) for _printf_core
    printf8.o(i.__0fprintf$8) refers to usart2.o(i.fputc) for fputc
    printf8.o(i.__0printf$8) refers to printf8.o(i._printf_core) for _printf_core
    printf8.o(i.__0printf$8) refers to usart2.o(i.fputc) for fputc
    printf8.o(i.__0printf$8) refers to usart2.o(.data) for __stdout
    printf8.o(i.__0snprintf$8) refers to printf8.o(i._printf_core) for _printf_core
    printf8.o(i.__0snprintf$8) refers to printf8.o(i._snputc) for _snputc
    printf8.o(i.__0sprintf$8) refers to printf8.o(i._printf_core) for _printf_core
    printf8.o(i.__0sprintf$8) refers to printf8.o(i._sputc) for _sputc
    printf8.o(i.__0vfprintf$8) refers to printf8.o(i._printf_core) for _printf_core
    printf8.o(i.__0vfprintf$8) refers to usart2.o(i.fputc) for fputc
    printf8.o(i.__0vprintf$8) refers to printf8.o(i._printf_core) for _printf_core
    printf8.o(i.__0vprintf$8) refers to usart2.o(i.fputc) for fputc
    printf8.o(i.__0vprintf$8) refers to usart2.o(.data) for __stdout
    printf8.o(i.__0vsnprintf$8) refers to printf8.o(i._printf_core) for _printf_core
    printf8.o(i.__0vsnprintf$8) refers to printf8.o(i._snputc) for _snputc
    printf8.o(i.__0vsprintf$8) refers to printf8.o(i._printf_core) for _printf_core
    printf8.o(i.__0vsprintf$8) refers to printf8.o(i._sputc) for _sputc
    printf8.o(i._printf_core) refers to printf8.o(i._printf_pre_padding) for _printf_pre_padding
    printf8.o(i._printf_core) refers to uldiv.o(.text) for __aeabi_uldivmod
    printf8.o(i._printf_core) refers to printf8.o(i._printf_post_padding) for _printf_post_padding
    printfa.o(i.__0fprintf) refers (Special) to iusefp.o(.text) for __I$use$fp
    printfa.o(i.__0fprintf) refers to printfa.o(i._printf_core) for _printf_core
    printfa.o(i.__0fprintf) refers to usart2.o(i.fputc) for fputc
    printfa.o(i.__0printf) refers (Special) to iusefp.o(.text) for __I$use$fp
    printfa.o(i.__0printf) refers to printfa.o(i._printf_core) for _printf_core
    printfa.o(i.__0printf) refers to usart2.o(i.fputc) for fputc
    printfa.o(i.__0printf) refers to usart2.o(.data) for __stdout
    printfa.o(i.__0snprintf) refers (Special) to iusefp.o(.text) for __I$use$fp
    printfa.o(i.__0snprintf) refers to printfa.o(i._printf_core) for _printf_core
    printfa.o(i.__0snprintf) refers to printfa.o(i._snputc) for _snputc
    printfa.o(i.__0sprintf) refers (Special) to iusefp.o(.text) for __I$use$fp
    printfa.o(i.__0sprintf) refers to printfa.o(i._printf_core) for _printf_core
    printfa.o(i.__0sprintf) refers to printfa.o(i._sputc) for _sputc
    printfa.o(i.__0vfprintf) refers (Special) to iusefp.o(.text) for __I$use$fp
    printfa.o(i.__0vfprintf) refers to printfa.o(i._printf_core) for _printf_core
    printfa.o(i.__0vfprintf) refers to usart2.o(i.fputc) for fputc
    printfa.o(i.__0vprintf) refers (Special) to iusefp.o(.text) for __I$use$fp
    printfa.o(i.__0vprintf) refers to printfa.o(i._printf_core) for _printf_core
    printfa.o(i.__0vprintf) refers to usart2.o(i.fputc) for fputc
    printfa.o(i.__0vprintf) refers to usart2.o(.data) for __stdout
    printfa.o(i.__0vsnprintf) refers (Special) to iusefp.o(.text) for __I$use$fp
    printfa.o(i.__0vsnprintf) refers to printfa.o(i._printf_core) for _printf_core
    printfa.o(i.__0vsnprintf) refers to printfa.o(i._snputc) for _snputc
    printfa.o(i.__0vsprintf) refers (Special) to iusefp.o(.text) for __I$use$fp
    printfa.o(i.__0vsprintf) refers to printfa.o(i._printf_core) for _printf_core
    printfa.o(i.__0vsprintf) refers to printfa.o(i._sputc) for _sputc
    printfa.o(i._fp_digits) refers (Special) to iusefp.o(.text) for __I$use$fp
    printfa.o(i._fp_digits) refers to dmul.o(.text) for __aeabi_dmul
    printfa.o(i._fp_digits) refers to ddiv.o(.text) for __aeabi_ddiv
    printfa.o(i._fp_digits) refers to cdrcmple.o(.text) for __aeabi_cdrcmple
    printfa.o(i._fp_digits) refers to dadd.o(.text) for __aeabi_dadd
    printfa.o(i._fp_digits) refers to dfixul.o(.text) for __aeabi_d2ulz
    printfa.o(i._fp_digits) refers to uldiv.o(.text) for __aeabi_uldivmod
    printfa.o(i._printf_core) refers (Special) to iusefp.o(.text) for __I$use$fp
    printfa.o(i._printf_core) refers to printfa.o(i._printf_pre_padding) for _printf_pre_padding
    printfa.o(i._printf_core) refers to uldiv.o(.text) for __aeabi_uldivmod
    printfa.o(i._printf_core) refers to printfa.o(i._printf_post_padding) for _printf_post_padding
    printfa.o(i._printf_core) refers to printfa.o(i._fp_digits) for _fp_digits
    printfa.o(i._printf_core) refers to uidiv.o(.text) for __aeabi_uidivmod
    printfa.o(i._printf_post_padding) refers (Special) to iusefp.o(.text) for __I$use$fp
    printfa.o(i._printf_pre_padding) refers (Special) to iusefp.o(.text) for __I$use$fp
    printfa.o(i._snputc) refers (Special) to iusefp.o(.text) for __I$use$fp
    printfa.o(i._sputc) refers (Special) to iusefp.o(.text) for __I$use$fp
    __0sscanf.o(.text) refers to scanf_char.o(.text) for __vfscanf_char
    __0sscanf.o(.text) refers to _sgetc.o(.text) for _sgetc
    fadd.o(.text) refers (Special) to iusefp.o(.text) for __I$use$fp
    fadd.o(.text) refers to fepilogue.o(.text) for _float_epilogue
    fmul.o(.text) refers (Special) to iusefp.o(.text) for __I$use$fp
    fdiv.o(.text) refers (Special) to iusefp.o(.text) for __I$use$fp
    fdiv.o(.text) refers to fepilogue.o(.text) for _float_round
    dadd.o(.text) refers (Special) to iusefp.o(.text) for __I$use$fp
    dadd.o(.text) refers to llshl.o(.text) for __aeabi_llsl
    dadd.o(.text) refers to llsshr.o(.text) for __aeabi_lasr
    dadd.o(.text) refers to depilogue.o(.text) for _double_epilogue
    dmul.o(.text) refers (Special) to iusefp.o(.text) for __I$use$fp
    dmul.o(.text) refers to depilogue.o(.text) for _double_epilogue
    ddiv.o(.text) refers (Special) to iusefp.o(.text) for __I$use$fp
    ddiv.o(.text) refers to depilogue.o(.text) for _double_round
    fflti.o(.text) refers (Special) to iusefp.o(.text) for __I$use$fp
    fflti.o(.text) refers to fepilogue.o(.text) for _float_epilogue
    ffltui.o(.text) refers (Special) to iusefp.o(.text) for __I$use$fp
    ffltui.o(.text) refers to fepilogue.o(.text) for _float_epilogue
    ffixi.o(.text) refers (Special) to iusefp.o(.text) for __I$use$fp
    dfixi.o(.text) refers (Special) to iusefp.o(.text) for __I$use$fp
    dfixi.o(.text) refers to llushr.o(.text) for __aeabi_llsr
    f2d.o(.text) refers (Special) to iusefp.o(.text) for __I$use$fp
    cdcmple.o(.text) refers (Special) to iusefp.o(.text) for __I$use$fp
    cdrcmple.o(.text) refers (Special) to iusefp.o(.text) for __I$use$fp
    d2f.o(.text) refers (Special) to iusefp.o(.text) for __I$use$fp
    d2f.o(.text) refers to fepilogue.o(.text) for _float_round
    cfcmple.o(.text) refers (Special) to iusefp.o(.text) for __I$use$fp
    cfrcmple.o(.text) refers (Special) to iusefp.o(.text) for __I$use$fp
    dunder.o(i.__mathlib_dbl_divzero) refers to ddiv.o(.text) for __aeabi_ddiv
    dunder.o(i.__mathlib_dbl_infnan) refers to dscalb.o(.text) for __ARM_scalbn
    dunder.o(i.__mathlib_dbl_infnan2) refers to dadd.o(.text) for __aeabi_dadd
    dunder.o(i.__mathlib_dbl_invalid) refers to ddiv.o(.text) for __aeabi_ddiv
    dunder.o(i.__mathlib_dbl_overflow) refers to dscalb.o(.text) for __ARM_scalbn
    dunder.o(i.__mathlib_dbl_posinfnan) refers to dmul.o(.text) for __aeabi_dmul
    dunder.o(i.__mathlib_dbl_underflow) refers to dscalb.o(.text) for __ARM_scalbn
    fpclassify.o(i.__ARM_fpclassify) refers (Special) to iusefp.o(.text) for __I$use$fp
    poly.o(i.__kernel_poly) refers (Special) to iusefp.o(.text) for __I$use$fp
    poly.o(i.__kernel_poly) refers to dmul.o(.text) for __aeabi_dmul
    poly.o(i.__kernel_poly) refers to dadd.o(.text) for __aeabi_dadd
    qnan.o(.constdata) refers (Special) to iusefp.o(.text) for __I$use$fp
    sqrt.o(i.__softfp_sqrt) refers (Special) to iusefp.o(.text) for __I$use$fp
    sqrt.o(i.__softfp_sqrt) refers to dsqrt.o(.text) for _dsqrt
    sqrt.o(i.__softfp_sqrt) refers to errno.o(i.__set_errno) for __set_errno
    sqrt.o(i.sqrt) refers (Special) to iusefp.o(.text) for __I$use$fp
    sqrt.o(i.sqrt) refers to dsqrt.o(.text) for _dsqrt
    sqrt.o(i.sqrt) refers to errno.o(i.__set_errno) for __set_errno
    sqrt_x.o(i.____softfp_sqrt$lsc) refers (Special) to iusefp.o(.text) for __I$use$fp
    sqrt_x.o(i.____softfp_sqrt$lsc) refers to cdcmple.o(.text) for __aeabi_cdcmple
    sqrt_x.o(i.____softfp_sqrt$lsc) refers to errno.o(i.__set_errno) for __set_errno
    sqrt_x.o(i.____softfp_sqrt$lsc) refers to dsqrt.o(.text) for _dsqrt
    sqrt_x.o(i.__sqrt$lsc) refers (Special) to iusefp.o(.text) for __I$use$fp
    sqrt_x.o(i.__sqrt$lsc) refers to cdcmple.o(.text) for __aeabi_cdcmple
    sqrt_x.o(i.__sqrt$lsc) refers to errno.o(i.__set_errno) for __set_errno
    sqrt_x.o(i.__sqrt$lsc) refers to dsqrt.o(.text) for _dsqrt
    entry2.o(.ARM.Collect$$$$00000001) refers to entry2.o(.ARM.Collect$$$$00002712) for __lit__00000000
    entry2.o(.ARM.Collect$$$$00002712) refers to startup_stm32f10x_hd.o(STACK) for __initial_sp
    entry2.o(__vectab_stack_and_reset_area) refers to startup_stm32f10x_hd.o(STACK) for __initial_sp
    entry2.o(__vectab_stack_and_reset_area) refers to entry.o(.ARM.Collect$$$$00000000) for __main
    entry5.o(.ARM.Collect$$$$00000004) refers to init.o(.text) for __scatterload
    entry9a.o(.ARM.Collect$$$$0000000B) refers to components.o(i.$Sub$$main) for main
    entry9b.o(.ARM.Collect$$$$0000000C) refers to components.o(i.$Sub$$main) for main
    uldiv.o(.text) refers to llushr.o(.text) for __aeabi_llsr
    uldiv.o(.text) refers to llshl.o(.text) for __aeabi_llsl
    errno.o(i.__aeabi_errno_addr) refers to errno.o(.data) for .data
    errno.o(i.__read_errno) refers to errno.o(.data) for .data
    errno.o(i.__set_errno) refers to errno.o(.data) for .data
    scanf_char.o(.text) refers to _scanf.o(.text) for __vfscanf
    scanf_char.o(.text) refers to isspace_c.o(.text) for isspace
    depilogue.o(.text) refers to llshl.o(.text) for __aeabi_llsl
    depilogue.o(.text) refers to llushr.o(.text) for __aeabi_llsr
    dflti.o(.text) refers to depilogue.o(.text) for _double_epilogue
    dfixul.o(.text) refers to llushr.o(.text) for __aeabi_llsr
    dfixul.o(.text) refers to llshl.o(.text) for __aeabi_llsl
    init.o(.text) refers to entry5.o(.ARM.Collect$$$$00000004) for __main_after_scatterload
    isspace_c.o(.text) refers to ctype_c.o(.text) for __ctype_lookup
    _scanf.o(.text) refers (Weak) to _scanf_str.o(.text) for _scanf_string
    dsqrt.o(.text) refers to llushr.o(.text) for __aeabi_llsr
    dsqrt.o(.text) refers to depilogue.o(.text) for _double_round
    ctype_c.o(.text) refers to ctype_c.o(.constdata) for .constdata


==============================================================================

Removing Unused input sections from the image.

    Removing startup_stm32f10x_hd.o(HEAP), (512 bytes).
    Removing core_cm3.o(.emb_text), (32 bytes).
    Removing system_stm32f10x.o(i.SystemCoreClockUpdate), (164 bytes).
    Removing misc.o(i.NVIC_SetVectorTable), (20 bytes).
    Removing misc.o(i.NVIC_SystemLPConfig), (32 bytes).
    Removing stm32f10x_adc.o(i.ADC_AnalogWatchdogCmd), (20 bytes).
    Removing stm32f10x_adc.o(i.ADC_AnalogWatchdogSingleChannelConfig), (16 bytes).
    Removing stm32f10x_adc.o(i.ADC_AnalogWatchdogThresholdsConfig), (6 bytes).
    Removing stm32f10x_adc.o(i.ADC_AutoInjectedConvCmd), (22 bytes).
    Removing stm32f10x_adc.o(i.ADC_ClearITPendingBit), (10 bytes).
    Removing stm32f10x_adc.o(i.ADC_DMACmd), (22 bytes).
    Removing stm32f10x_adc.o(i.ADC_DiscModeChannelCountConfig), (24 bytes).
    Removing stm32f10x_adc.o(i.ADC_DiscModeCmd), (22 bytes).
    Removing stm32f10x_adc.o(i.ADC_ExternalTrigConvCmd), (22 bytes).
    Removing stm32f10x_adc.o(i.ADC_ExternalTrigInjectedConvCmd), (22 bytes).
    Removing stm32f10x_adc.o(i.ADC_ExternalTrigInjectedConvConfig), (16 bytes).
    Removing stm32f10x_adc.o(i.ADC_GetDualModeConversionValue), (12 bytes).
    Removing stm32f10x_adc.o(i.ADC_GetITStatus), (36 bytes).
    Removing stm32f10x_adc.o(i.ADC_GetInjectedConversionValue), (28 bytes).
    Removing stm32f10x_adc.o(i.ADC_GetSoftwareStartConvStatus), (20 bytes).
    Removing stm32f10x_adc.o(i.ADC_GetSoftwareStartInjectedConvCmdStatus), (20 bytes).
    Removing stm32f10x_adc.o(i.ADC_ITConfig), (24 bytes).
    Removing stm32f10x_adc.o(i.ADC_InjectedChannelConfig), (130 bytes).
    Removing stm32f10x_adc.o(i.ADC_InjectedDiscModeCmd), (22 bytes).
    Removing stm32f10x_adc.o(i.ADC_InjectedSequencerLengthConfig), (24 bytes).
    Removing stm32f10x_adc.o(i.ADC_SetInjectedOffset), (20 bytes).
    Removing stm32f10x_adc.o(i.ADC_SoftwareStartInjectedConvCmd), (22 bytes).
    Removing stm32f10x_adc.o(i.ADC_StructInit), (18 bytes).
    Removing stm32f10x_adc.o(i.ADC_TempSensorVrefintCmd), (36 bytes).
    Removing stm32f10x_bkp.o(i.BKP_ClearFlag), (20 bytes).
    Removing stm32f10x_bkp.o(i.BKP_ClearITPendingBit), (20 bytes).
    Removing stm32f10x_bkp.o(i.BKP_DeInit), (16 bytes).
    Removing stm32f10x_bkp.o(i.BKP_GetFlagStatus), (12 bytes).
    Removing stm32f10x_bkp.o(i.BKP_GetITStatus), (12 bytes).
    Removing stm32f10x_bkp.o(i.BKP_ITConfig), (12 bytes).
    Removing stm32f10x_bkp.o(i.BKP_RTCOutputConfig), (28 bytes).
    Removing stm32f10x_bkp.o(i.BKP_ReadBackupRegister), (28 bytes).
    Removing stm32f10x_bkp.o(i.BKP_SetRTCCalibrationValue), (28 bytes).
    Removing stm32f10x_bkp.o(i.BKP_TamperPinCmd), (12 bytes).
    Removing stm32f10x_bkp.o(i.BKP_TamperPinLevelConfig), (12 bytes).
    Removing stm32f10x_bkp.o(i.BKP_WriteBackupRegister), (28 bytes).
    Removing stm32f10x_can.o(i.CAN_CancelTransmit), (48 bytes).
    Removing stm32f10x_can.o(i.CAN_ClearFlag), (56 bytes).
    Removing stm32f10x_can.o(i.CAN_ClearITPendingBit), (168 bytes).
    Removing stm32f10x_can.o(i.CAN_DBGFreeze), (22 bytes).
    Removing stm32f10x_can.o(i.CAN_DeInit), (56 bytes).
    Removing stm32f10x_can.o(i.CAN_FIFORelease), (22 bytes).
    Removing stm32f10x_can.o(i.CAN_FilterInit), (264 bytes).
    Removing stm32f10x_can.o(i.CAN_GetFlagStatus), (120 bytes).
    Removing stm32f10x_can.o(i.CAN_GetITStatus), (288 bytes).
    Removing stm32f10x_can.o(i.CAN_GetLSBTransmitErrorCounter), (12 bytes).
    Removing stm32f10x_can.o(i.CAN_GetLastErrorCode), (12 bytes).
    Removing stm32f10x_can.o(i.CAN_GetReceiveErrorCounter), (10 bytes).
    Removing stm32f10x_can.o(i.CAN_ITConfig), (18 bytes).
    Removing stm32f10x_can.o(i.CAN_Init), (276 bytes).
    Removing stm32f10x_can.o(i.CAN_MessagePending), (30 bytes).
    Removing stm32f10x_can.o(i.CAN_OperatingModeRequest), (162 bytes).
    Removing stm32f10x_can.o(i.CAN_Receive), (240 bytes).
    Removing stm32f10x_can.o(i.CAN_SlaveStartBank), (52 bytes).
    Removing stm32f10x_can.o(i.CAN_Sleep), (30 bytes).
    Removing stm32f10x_can.o(i.CAN_StructInit), (32 bytes).
    Removing stm32f10x_can.o(i.CAN_TTComModeCmd), (118 bytes).
    Removing stm32f10x_can.o(i.CAN_Transmit), (294 bytes).
    Removing stm32f10x_can.o(i.CAN_TransmitStatus), (160 bytes).
    Removing stm32f10x_can.o(i.CAN_WakeUp), (48 bytes).
    Removing stm32f10x_can.o(i.CheckITStatus), (18 bytes).
    Removing stm32f10x_cec.o(i.CEC_ClearFlag), (36 bytes).
    Removing stm32f10x_cec.o(i.CEC_ClearITPendingBit), (36 bytes).
    Removing stm32f10x_cec.o(i.CEC_Cmd), (32 bytes).
    Removing stm32f10x_cec.o(i.CEC_DeInit), (22 bytes).
    Removing stm32f10x_cec.o(i.CEC_EndOfMessageCmd), (12 bytes).
    Removing stm32f10x_cec.o(i.CEC_GetFlagStatus), (48 bytes).
    Removing stm32f10x_cec.o(i.CEC_GetITStatus), (40 bytes).
    Removing stm32f10x_cec.o(i.CEC_ITConfig), (12 bytes).
    Removing stm32f10x_cec.o(i.CEC_Init), (32 bytes).
    Removing stm32f10x_cec.o(i.CEC_OwnAddressConfig), (12 bytes).
    Removing stm32f10x_cec.o(i.CEC_ReceiveDataByte), (12 bytes).
    Removing stm32f10x_cec.o(i.CEC_SendDataByte), (12 bytes).
    Removing stm32f10x_cec.o(i.CEC_SetPrescaler), (12 bytes).
    Removing stm32f10x_cec.o(i.CEC_StartOfMessage), (12 bytes).
    Removing stm32f10x_crc.o(i.CRC_CalcBlockCRC), (36 bytes).
    Removing stm32f10x_crc.o(i.CRC_CalcCRC), (16 bytes).
    Removing stm32f10x_crc.o(i.CRC_GetCRC), (12 bytes).
    Removing stm32f10x_crc.o(i.CRC_GetIDRegister), (12 bytes).
    Removing stm32f10x_crc.o(i.CRC_ResetDR), (12 bytes).
    Removing stm32f10x_crc.o(i.CRC_SetIDRegister), (12 bytes).
    Removing stm32f10x_dac.o(i.DAC_Cmd), (40 bytes).
    Removing stm32f10x_dac.o(i.DAC_DMACmd), (44 bytes).
    Removing stm32f10x_dac.o(i.DAC_DeInit), (22 bytes).
    Removing stm32f10x_dac.o(i.DAC_DualSoftwareTriggerCmd), (36 bytes).
    Removing stm32f10x_dac.o(i.DAC_GetDataOutputValue), (36 bytes).
    Removing stm32f10x_dac.o(i.DAC_Init), (52 bytes).
    Removing stm32f10x_dac.o(i.DAC_SetChannel1Data), (32 bytes).
    Removing stm32f10x_dac.o(i.DAC_SetChannel2Data), (32 bytes).
    Removing stm32f10x_dac.o(i.DAC_SetDualChannelData), (36 bytes).
    Removing stm32f10x_dac.o(i.DAC_SoftwareTriggerCmd), (44 bytes).
    Removing stm32f10x_dac.o(i.DAC_StructInit), (12 bytes).
    Removing stm32f10x_dac.o(i.DAC_WaveGenerationCmd), (40 bytes).
    Removing stm32f10x_dbgmcu.o(i.DBGMCU_Config), (32 bytes).
    Removing stm32f10x_dbgmcu.o(i.DBGMCU_GetDEVID), (16 bytes).
    Removing stm32f10x_dbgmcu.o(i.DBGMCU_GetREVID), (12 bytes).
    Removing stm32f10x_dma.o(i.DMA_ClearFlag), (28 bytes).
    Removing stm32f10x_dma.o(i.DMA_ClearITPendingBit), (28 bytes).
    Removing stm32f10x_dma.o(i.DMA_Cmd), (24 bytes).
    Removing stm32f10x_dma.o(i.DMA_DeInit), (332 bytes).
    Removing stm32f10x_dma.o(i.DMA_GetCurrDataCounter), (8 bytes).
    Removing stm32f10x_dma.o(i.DMA_GetFlagStatus), (44 bytes).
    Removing stm32f10x_dma.o(i.DMA_GetITStatus), (44 bytes).
    Removing stm32f10x_dma.o(i.DMA_ITConfig), (18 bytes).
    Removing stm32f10x_dma.o(i.DMA_Init), (60 bytes).
    Removing stm32f10x_dma.o(i.DMA_SetCurrDataCounter), (4 bytes).
    Removing stm32f10x_dma.o(i.DMA_StructInit), (26 bytes).
    Removing stm32f10x_exti.o(i.EXTI_ClearFlag), (12 bytes).
    Removing stm32f10x_exti.o(i.EXTI_DeInit), (36 bytes).
    Removing stm32f10x_exti.o(i.EXTI_GenerateSWInterrupt), (16 bytes).
    Removing stm32f10x_exti.o(i.EXTI_GetFlagStatus), (24 bytes).
    Removing stm32f10x_exti.o(i.EXTI_StructInit), (16 bytes).
    Removing stm32f10x_flash.o(i.FLASH_ClearFlag), (12 bytes).
    Removing stm32f10x_flash.o(i.FLASH_EnableWriteProtection), (196 bytes).
    Removing stm32f10x_flash.o(i.FLASH_EraseAllBank1Pages), (72 bytes).
    Removing stm32f10x_flash.o(i.FLASH_EraseAllPages), (72 bytes).
    Removing stm32f10x_flash.o(i.FLASH_EraseOptionBytes), (168 bytes).
    Removing stm32f10x_flash.o(i.FLASH_ErasePage), (76 bytes).
    Removing stm32f10x_flash.o(i.FLASH_GetBank1Status), (52 bytes).
    Removing stm32f10x_flash.o(i.FLASH_GetFlagStatus), (48 bytes).
    Removing stm32f10x_flash.o(i.FLASH_GetPrefetchBufferStatus), (24 bytes).
    Removing stm32f10x_flash.o(i.FLASH_GetReadOutProtectionStatus), (24 bytes).
    Removing stm32f10x_flash.o(i.FLASH_GetStatus), (52 bytes).
    Removing stm32f10x_flash.o(i.FLASH_GetUserOptionByte), (12 bytes).
    Removing stm32f10x_flash.o(i.FLASH_GetWriteProtectionOptionByte), (12 bytes).
    Removing stm32f10x_flash.o(i.FLASH_HalfCycleAccessCmd), (28 bytes).
    Removing stm32f10x_flash.o(i.FLASH_ITConfig), (32 bytes).
    Removing stm32f10x_flash.o(i.FLASH_Lock), (20 bytes).
    Removing stm32f10x_flash.o(i.FLASH_LockBank1), (20 bytes).
    Removing stm32f10x_flash.o(i.FLASH_PrefetchBufferCmd), (28 bytes).
    Removing stm32f10x_flash.o(i.FLASH_ProgramHalfWord), (64 bytes).
    Removing stm32f10x_flash.o(i.FLASH_ProgramOptionByteData), (84 bytes).
    Removing stm32f10x_flash.o(i.FLASH_ProgramWord), (108 bytes).
    Removing stm32f10x_flash.o(i.FLASH_ReadOutProtection), (172 bytes).
    Removing stm32f10x_flash.o(i.FLASH_SetLatency), (24 bytes).
    Removing stm32f10x_flash.o(i.FLASH_Unlock), (24 bytes).
    Removing stm32f10x_flash.o(i.FLASH_UnlockBank1), (24 bytes).
    Removing stm32f10x_flash.o(i.FLASH_UserOptionByteConfig), (104 bytes).
    Removing stm32f10x_flash.o(i.FLASH_WaitForLastBank1Operation), (38 bytes).
    Removing stm32f10x_flash.o(i.FLASH_WaitForLastOperation), (38 bytes).
    Removing stm32f10x_fsmc.o(i.FSMC_ClearFlag), (64 bytes).
    Removing stm32f10x_fsmc.o(i.FSMC_ClearITPendingBit), (72 bytes).
    Removing stm32f10x_fsmc.o(i.FSMC_GetECC), (28 bytes).
    Removing stm32f10x_fsmc.o(i.FSMC_GetFlagStatus), (56 bytes).
    Removing stm32f10x_fsmc.o(i.FSMC_GetITStatus), (68 bytes).
    Removing stm32f10x_fsmc.o(i.FSMC_ITConfig), (128 bytes).
    Removing stm32f10x_fsmc.o(i.FSMC_NANDCmd), (92 bytes).
    Removing stm32f10x_fsmc.o(i.FSMC_NANDDeInit), (68 bytes).
    Removing stm32f10x_fsmc.o(i.FSMC_NANDECCCmd), (92 bytes).
    Removing stm32f10x_fsmc.o(i.FSMC_NANDInit), (136 bytes).
    Removing stm32f10x_fsmc.o(i.FSMC_NANDStructInit), (54 bytes).
    Removing stm32f10x_fsmc.o(i.FSMC_NORSRAMCmd), (52 bytes).
    Removing stm32f10x_fsmc.o(i.FSMC_NORSRAMDeInit), (54 bytes).
    Removing stm32f10x_fsmc.o(i.FSMC_NORSRAMInit), (230 bytes).
    Removing stm32f10x_fsmc.o(i.FSMC_NORSRAMStructInit), (114 bytes).
    Removing stm32f10x_fsmc.o(i.FSMC_PCCARDCmd), (48 bytes).
    Removing stm32f10x_fsmc.o(i.FSMC_PCCARDDeInit), (40 bytes).
    Removing stm32f10x_fsmc.o(i.FSMC_PCCARDInit), (132 bytes).
    Removing stm32f10x_fsmc.o(i.FSMC_PCCARDStructInit), (60 bytes).
    Removing stm32f10x_gpio.o(i.GPIO_AFIODeInit), (20 bytes).
    Removing stm32f10x_gpio.o(i.GPIO_DeInit), (200 bytes).
    Removing stm32f10x_gpio.o(i.GPIO_ETH_MediaInterfaceConfig), (12 bytes).
    Removing stm32f10x_gpio.o(i.GPIO_EventOutputCmd), (12 bytes).
    Removing stm32f10x_gpio.o(i.GPIO_EventOutputConfig), (32 bytes).
    Removing stm32f10x_gpio.o(i.GPIO_PinLockConfig), (18 bytes).
    Removing stm32f10x_gpio.o(i.GPIO_PinRemapConfig), (144 bytes).
    Removing stm32f10x_gpio.o(i.GPIO_ReadInputData), (8 bytes).
    Removing stm32f10x_gpio.o(i.GPIO_ReadOutputData), (8 bytes).
    Removing stm32f10x_gpio.o(i.GPIO_ReadOutputDataBit), (18 bytes).
    Removing stm32f10x_gpio.o(i.GPIO_StructInit), (16 bytes).
    Removing stm32f10x_gpio.o(i.GPIO_Write), (4 bytes).
    Removing stm32f10x_gpio.o(i.GPIO_WriteBit), (10 bytes).
    Removing stm32f10x_i2c.o(i.I2C_ARPCmd), (24 bytes).
    Removing stm32f10x_i2c.o(i.I2C_AcknowledgeConfig), (24 bytes).
    Removing stm32f10x_i2c.o(i.I2C_CalculatePEC), (24 bytes).
    Removing stm32f10x_i2c.o(i.I2C_CheckEvent), (42 bytes).
    Removing stm32f10x_i2c.o(i.I2C_ClearFlag), (12 bytes).
    Removing stm32f10x_i2c.o(i.I2C_ClearITPendingBit), (12 bytes).
    Removing stm32f10x_i2c.o(i.I2C_Cmd), (24 bytes).
    Removing stm32f10x_i2c.o(i.I2C_DMACmd), (24 bytes).
    Removing stm32f10x_i2c.o(i.I2C_DMALastTransferCmd), (24 bytes).
    Removing stm32f10x_i2c.o(i.I2C_DeInit), (56 bytes).
    Removing stm32f10x_i2c.o(i.I2C_DualAddressCmd), (24 bytes).
    Removing stm32f10x_i2c.o(i.I2C_FastModeDutyCycleConfig), (28 bytes).
    Removing stm32f10x_i2c.o(i.I2C_GeneralCallCmd), (24 bytes).
    Removing stm32f10x_i2c.o(i.I2C_GenerateSTART), (24 bytes).
    Removing stm32f10x_i2c.o(i.I2C_GenerateSTOP), (24 bytes).
    Removing stm32f10x_i2c.o(i.I2C_GetFlagStatus), (58 bytes).
    Removing stm32f10x_i2c.o(i.I2C_GetITStatus), (38 bytes).
    Removing stm32f10x_i2c.o(i.I2C_GetLastEvent), (26 bytes).
    Removing stm32f10x_i2c.o(i.I2C_GetPEC), (8 bytes).
    Removing stm32f10x_i2c.o(i.I2C_ITConfig), (18 bytes).
    Removing stm32f10x_i2c.o(i.I2C_Init), (236 bytes).
    Removing stm32f10x_i2c.o(i.I2C_NACKPositionConfig), (28 bytes).
    Removing stm32f10x_i2c.o(i.I2C_OwnAddress2Config), (22 bytes).
    Removing stm32f10x_i2c.o(i.I2C_PECPositionConfig), (28 bytes).
    Removing stm32f10x_i2c.o(i.I2C_ReadRegister), (22 bytes).
    Removing stm32f10x_i2c.o(i.I2C_ReceiveData), (8 bytes).
    Removing stm32f10x_i2c.o(i.I2C_SMBusAlertConfig), (28 bytes).
    Removing stm32f10x_i2c.o(i.I2C_Send7bitAddress), (18 bytes).
    Removing stm32f10x_i2c.o(i.I2C_SendData), (4 bytes).
    Removing stm32f10x_i2c.o(i.I2C_SoftwareResetCmd), (22 bytes).
    Removing stm32f10x_i2c.o(i.I2C_StretchClockCmd), (24 bytes).
    Removing stm32f10x_i2c.o(i.I2C_StructInit), (30 bytes).
    Removing stm32f10x_i2c.o(i.I2C_TransmitPEC), (24 bytes).
    Removing stm32f10x_iwdg.o(i.IWDG_GetFlagStatus), (24 bytes).
    Removing stm32f10x_pwr.o(i.PWR_BackupAccessCmd), (12 bytes).
    Removing stm32f10x_pwr.o(i.PWR_ClearFlag), (20 bytes).
    Removing stm32f10x_pwr.o(i.PWR_DeInit), (22 bytes).
    Removing stm32f10x_pwr.o(i.PWR_EnterSTANDBYMode), (52 bytes).
    Removing stm32f10x_pwr.o(i.PWR_EnterSTOPMode), (64 bytes).
    Removing stm32f10x_pwr.o(i.PWR_GetFlagStatus), (24 bytes).
    Removing stm32f10x_pwr.o(i.PWR_PVDCmd), (12 bytes).
    Removing stm32f10x_pwr.o(i.PWR_PVDLevelConfig), (24 bytes).
    Removing stm32f10x_pwr.o(i.PWR_WakeUpPinCmd), (12 bytes).
    Removing stm32f10x_rcc.o(i.RCC_AHBPeriphClockCmd), (32 bytes).
    Removing stm32f10x_rcc.o(i.RCC_AdjustHSICalibrationValue), (24 bytes).
    Removing stm32f10x_rcc.o(i.RCC_BackupResetCmd), (12 bytes).
    Removing stm32f10x_rcc.o(i.RCC_ClearFlag), (20 bytes).
    Removing stm32f10x_rcc.o(i.RCC_ClearITPendingBit), (12 bytes).
    Removing stm32f10x_rcc.o(i.RCC_ClockSecuritySystemCmd), (12 bytes).
    Removing stm32f10x_rcc.o(i.RCC_DeInit), (76 bytes).
    Removing stm32f10x_rcc.o(i.RCC_GetFlagStatus), (60 bytes).
    Removing stm32f10x_rcc.o(i.RCC_GetITStatus), (24 bytes).
    Removing stm32f10x_rcc.o(i.RCC_GetSYSCLKSource), (16 bytes).
    Removing stm32f10x_rcc.o(i.RCC_HCLKConfig), (24 bytes).
    Removing stm32f10x_rcc.o(i.RCC_HSEConfig), (76 bytes).
    Removing stm32f10x_rcc.o(i.RCC_HSICmd), (12 bytes).
    Removing stm32f10x_rcc.o(i.RCC_ITConfig), (32 bytes).
    Removing stm32f10x_rcc.o(i.RCC_LSEConfig), (52 bytes).
    Removing stm32f10x_rcc.o(i.RCC_LSICmd), (12 bytes).
    Removing stm32f10x_rcc.o(i.RCC_MCOConfig), (12 bytes).
    Removing stm32f10x_rcc.o(i.RCC_PCLK1Config), (24 bytes).
    Removing stm32f10x_rcc.o(i.RCC_PCLK2Config), (24 bytes).
    Removing stm32f10x_rcc.o(i.RCC_PLLCmd), (12 bytes).
    Removing stm32f10x_rcc.o(i.RCC_PLLConfig), (28 bytes).
    Removing stm32f10x_rcc.o(i.RCC_RTCCLKCmd), (12 bytes).
    Removing stm32f10x_rcc.o(i.RCC_RTCCLKConfig), (16 bytes).
    Removing stm32f10x_rcc.o(i.RCC_SYSCLKConfig), (24 bytes).
    Removing stm32f10x_rcc.o(i.RCC_USBCLKConfig), (12 bytes).
    Removing stm32f10x_rcc.o(i.RCC_WaitForHSEStartUp), (56 bytes).
    Removing stm32f10x_rtc.o(i.RTC_ClearFlag), (16 bytes).
    Removing stm32f10x_rtc.o(i.RTC_ClearITPendingBit), (16 bytes).
    Removing stm32f10x_rtc.o(i.RTC_EnterConfigMode), (20 bytes).
    Removing stm32f10x_rtc.o(i.RTC_ExitConfigMode), (20 bytes).
    Removing stm32f10x_rtc.o(i.RTC_GetCounter), (20 bytes).
    Removing stm32f10x_rtc.o(i.RTC_GetDivider), (24 bytes).
    Removing stm32f10x_rtc.o(i.RTC_GetFlagStatus), (24 bytes).
    Removing stm32f10x_rtc.o(i.RTC_GetITStatus), (36 bytes).
    Removing stm32f10x_rtc.o(i.RTC_ITConfig), (32 bytes).
    Removing stm32f10x_rtc.o(i.RTC_SetAlarm), (28 bytes).
    Removing stm32f10x_rtc.o(i.RTC_SetCounter), (28 bytes).
    Removing stm32f10x_rtc.o(i.RTC_SetPrescaler), (32 bytes).
    Removing stm32f10x_rtc.o(i.RTC_WaitForLastTask), (20 bytes).
    Removing stm32f10x_rtc.o(i.RTC_WaitForSynchro), (36 bytes).
    Removing stm32f10x_sdio.o(i.SDIO_CEATAITCmd), (16 bytes).
    Removing stm32f10x_sdio.o(i.SDIO_ClearFlag), (12 bytes).
    Removing stm32f10x_sdio.o(i.SDIO_ClearITPendingBit), (12 bytes).
    Removing stm32f10x_sdio.o(i.SDIO_ClockCmd), (12 bytes).
    Removing stm32f10x_sdio.o(i.SDIO_CmdStructInit), (14 bytes).
    Removing stm32f10x_sdio.o(i.SDIO_CommandCompletionCmd), (12 bytes).
    Removing stm32f10x_sdio.o(i.SDIO_DMACmd), (12 bytes).
    Removing stm32f10x_sdio.o(i.SDIO_DataConfig), (48 bytes).
    Removing stm32f10x_sdio.o(i.SDIO_DataStructInit), (20 bytes).
    Removing stm32f10x_sdio.o(i.SDIO_DeInit), (36 bytes).
    Removing stm32f10x_sdio.o(i.SDIO_GetCommandResponse), (12 bytes).
    Removing stm32f10x_sdio.o(i.SDIO_GetDataCounter), (12 bytes).
    Removing stm32f10x_sdio.o(i.SDIO_GetFIFOCount), (12 bytes).
    Removing stm32f10x_sdio.o(i.SDIO_GetFlagStatus), (24 bytes).
    Removing stm32f10x_sdio.o(i.SDIO_GetITStatus), (24 bytes).
    Removing stm32f10x_sdio.o(i.SDIO_GetPowerState), (16 bytes).
    Removing stm32f10x_sdio.o(i.SDIO_GetResponse), (24 bytes).
    Removing stm32f10x_sdio.o(i.SDIO_ITConfig), (32 bytes).
    Removing stm32f10x_sdio.o(i.SDIO_Init), (48 bytes).
    Removing stm32f10x_sdio.o(i.SDIO_ReadData), (12 bytes).
    Removing stm32f10x_sdio.o(i.SDIO_SendCEATACmd), (12 bytes).
    Removing stm32f10x_sdio.o(i.SDIO_SendCommand), (44 bytes).
    Removing stm32f10x_sdio.o(i.SDIO_SendSDIOSuspendCmd), (12 bytes).
    Removing stm32f10x_sdio.o(i.SDIO_SetPowerState), (28 bytes).
    Removing stm32f10x_sdio.o(i.SDIO_SetSDIOOperation), (12 bytes).
    Removing stm32f10x_sdio.o(i.SDIO_SetSDIOReadWaitMode), (12 bytes).
    Removing stm32f10x_sdio.o(i.SDIO_StartSDIOReadWait), (12 bytes).
    Removing stm32f10x_sdio.o(i.SDIO_StopSDIOReadWait), (12 bytes).
    Removing stm32f10x_sdio.o(i.SDIO_StructInit), (16 bytes).
    Removing stm32f10x_sdio.o(i.SDIO_WriteData), (12 bytes).
    Removing stm32f10x_spi.o(i.I2S_Cmd), (24 bytes).
    Removing stm32f10x_spi.o(i.I2S_Init), (232 bytes).
    Removing stm32f10x_spi.o(i.I2S_StructInit), (20 bytes).
    Removing stm32f10x_spi.o(i.SPI_BiDirectionalLineConfig), (28 bytes).
    Removing stm32f10x_spi.o(i.SPI_CalculateCRC), (24 bytes).
    Removing stm32f10x_spi.o(i.SPI_Cmd), (24 bytes).
    Removing stm32f10x_spi.o(i.SPI_DataSizeConfig), (18 bytes).
    Removing stm32f10x_spi.o(i.SPI_GetCRC), (16 bytes).
    Removing stm32f10x_spi.o(i.SPI_GetCRCPolynomial), (6 bytes).
    Removing stm32f10x_spi.o(i.SPI_I2S_ClearFlag), (6 bytes).
    Removing stm32f10x_spi.o(i.SPI_I2S_ClearITPendingBit), (20 bytes).
    Removing stm32f10x_spi.o(i.SPI_I2S_DMACmd), (18 bytes).
    Removing stm32f10x_spi.o(i.SPI_I2S_DeInit), (88 bytes).
    Removing stm32f10x_spi.o(i.SPI_I2S_GetFlagStatus), (18 bytes).
    Removing stm32f10x_spi.o(i.SPI_I2S_GetITStatus), (52 bytes).
    Removing stm32f10x_spi.o(i.SPI_I2S_ITConfig), (32 bytes).
    Removing stm32f10x_spi.o(i.SPI_I2S_ReceiveData), (6 bytes).
    Removing stm32f10x_spi.o(i.SPI_I2S_SendData), (4 bytes).
    Removing stm32f10x_spi.o(i.SPI_Init), (60 bytes).
    Removing stm32f10x_spi.o(i.SPI_NSSInternalSoftwareConfig), (30 bytes).
    Removing stm32f10x_spi.o(i.SPI_SSOutputCmd), (24 bytes).
    Removing stm32f10x_spi.o(i.SPI_StructInit), (24 bytes).
    Removing stm32f10x_spi.o(i.SPI_TransmitCRC), (10 bytes).
    Removing stm32f10x_tim.o(i.TI1_Config), (128 bytes).
    Removing stm32f10x_tim.o(i.TI2_Config), (152 bytes).
    Removing stm32f10x_tim.o(i.TI3_Config), (144 bytes).
    Removing stm32f10x_tim.o(i.TI4_Config), (152 bytes).
    Removing stm32f10x_tim.o(i.TIM_ARRPreloadConfig), (24 bytes).
    Removing stm32f10x_tim.o(i.TIM_BDTRConfig), (32 bytes).
    Removing stm32f10x_tim.o(i.TIM_BDTRStructInit), (18 bytes).
    Removing stm32f10x_tim.o(i.TIM_CCPreloadControl), (24 bytes).
    Removing stm32f10x_tim.o(i.TIM_CCxCmd), (30 bytes).
    Removing stm32f10x_tim.o(i.TIM_CCxNCmd), (30 bytes).
    Removing stm32f10x_tim.o(i.TIM_ClearOC1Ref), (18 bytes).
    Removing stm32f10x_tim.o(i.TIM_ClearOC2Ref), (24 bytes).
    Removing stm32f10x_tim.o(i.TIM_ClearOC3Ref), (18 bytes).
    Removing stm32f10x_tim.o(i.TIM_ClearOC4Ref), (24 bytes).
    Removing stm32f10x_tim.o(i.TIM_CounterModeConfig), (18 bytes).
    Removing stm32f10x_tim.o(i.TIM_CtrlPWMOutputs), (30 bytes).
    Removing stm32f10x_tim.o(i.TIM_DMACmd), (18 bytes).
    Removing stm32f10x_tim.o(i.TIM_DMAConfig), (10 bytes).
    Removing stm32f10x_tim.o(i.TIM_DeInit), (488 bytes).
    Removing stm32f10x_tim.o(i.TIM_ETRClockMode1Config), (54 bytes).
    Removing stm32f10x_tim.o(i.TIM_ETRClockMode2Config), (32 bytes).
    Removing stm32f10x_tim.o(i.TIM_ETRConfig), (28 bytes).
    Removing stm32f10x_tim.o(i.TIM_EncoderInterfaceConfig), (66 bytes).
    Removing stm32f10x_tim.o(i.TIM_ForcedOC1Config), (18 bytes).
    Removing stm32f10x_tim.o(i.TIM_ForcedOC2Config), (26 bytes).
    Removing stm32f10x_tim.o(i.TIM_ForcedOC3Config), (18 bytes).
    Removing stm32f10x_tim.o(i.TIM_ForcedOC4Config), (26 bytes).
    Removing stm32f10x_tim.o(i.TIM_GenerateEvent), (4 bytes).
    Removing stm32f10x_tim.o(i.TIM_GetCapture1), (6 bytes).
    Removing stm32f10x_tim.o(i.TIM_GetCapture2), (6 bytes).
    Removing stm32f10x_tim.o(i.TIM_GetCapture3), (6 bytes).
    Removing stm32f10x_tim.o(i.TIM_GetCapture4), (8 bytes).
    Removing stm32f10x_tim.o(i.TIM_GetCounter), (6 bytes).
    Removing stm32f10x_tim.o(i.TIM_GetFlagStatus), (18 bytes).
    Removing stm32f10x_tim.o(i.TIM_GetPrescaler), (6 bytes).
    Removing stm32f10x_tim.o(i.TIM_ICInit), (172 bytes).
    Removing stm32f10x_tim.o(i.TIM_ICStructInit), (18 bytes).
    Removing stm32f10x_tim.o(i.TIM_ITRxExternalClockConfig), (24 bytes).
    Removing stm32f10x_tim.o(i.TIM_InternalClockConfig), (12 bytes).
    Removing stm32f10x_tim.o(i.TIM_OC1FastConfig), (18 bytes).
    Removing stm32f10x_tim.o(i.TIM_OC1Init), (152 bytes).
    Removing stm32f10x_tim.o(i.TIM_OC1NPolarityConfig), (18 bytes).
    Removing stm32f10x_tim.o(i.TIM_OC1PolarityConfig), (18 bytes).
    Removing stm32f10x_tim.o(i.TIM_OC1PreloadConfig), (18 bytes).
    Removing stm32f10x_tim.o(i.TIM_OC2FastConfig), (26 bytes).
    Removing stm32f10x_tim.o(i.TIM_OC2Init), (164 bytes).
    Removing stm32f10x_tim.o(i.TIM_OC2NPolarityConfig), (26 bytes).
    Removing stm32f10x_tim.o(i.TIM_OC2PolarityConfig), (26 bytes).
    Removing stm32f10x_tim.o(i.TIM_OC2PreloadConfig), (26 bytes).
    Removing stm32f10x_tim.o(i.TIM_OC3FastConfig), (18 bytes).
    Removing stm32f10x_tim.o(i.TIM_OC3Init), (160 bytes).
    Removing stm32f10x_tim.o(i.TIM_OC3NPolarityConfig), (26 bytes).
    Removing stm32f10x_tim.o(i.TIM_OC3PolarityConfig), (26 bytes).
    Removing stm32f10x_tim.o(i.TIM_OC3PreloadConfig), (18 bytes).
    Removing stm32f10x_tim.o(i.TIM_OC4FastConfig), (26 bytes).
    Removing stm32f10x_tim.o(i.TIM_OC4Init), (124 bytes).
    Removing stm32f10x_tim.o(i.TIM_OC4PolarityConfig), (26 bytes).
    Removing stm32f10x_tim.o(i.TIM_OC4PreloadConfig), (26 bytes).
    Removing stm32f10x_tim.o(i.TIM_OCStructInit), (20 bytes).
    Removing stm32f10x_tim.o(i.TIM_PWMIConfig), (124 bytes).
    Removing stm32f10x_tim.o(i.TIM_PrescalerConfig), (6 bytes).
    Removing stm32f10x_tim.o(i.TIM_SelectCCDMA), (24 bytes).
    Removing stm32f10x_tim.o(i.TIM_SelectCOM), (24 bytes).
    Removing stm32f10x_tim.o(i.TIM_SelectHallSensor), (24 bytes).
    Removing stm32f10x_tim.o(i.TIM_SelectInputTrigger), (18 bytes).
    Removing stm32f10x_tim.o(i.TIM_SelectMasterSlaveMode), (18 bytes).
    Removing stm32f10x_tim.o(i.TIM_SelectOCxM), (82 bytes).
    Removing stm32f10x_tim.o(i.TIM_SelectOnePulseMode), (18 bytes).
    Removing stm32f10x_tim.o(i.TIM_SelectOutputTrigger), (18 bytes).
    Removing stm32f10x_tim.o(i.TIM_SelectSlaveMode), (18 bytes).
    Removing stm32f10x_tim.o(i.TIM_SetAutoreload), (4 bytes).
    Removing stm32f10x_tim.o(i.TIM_SetClockDivision), (18 bytes).
    Removing stm32f10x_tim.o(i.TIM_SetCompare1), (4 bytes).
    Removing stm32f10x_tim.o(i.TIM_SetCompare2), (4 bytes).
    Removing stm32f10x_tim.o(i.TIM_SetCompare3), (4 bytes).
    Removing stm32f10x_tim.o(i.TIM_SetCompare4), (6 bytes).
    Removing stm32f10x_tim.o(i.TIM_SetCounter), (4 bytes).
    Removing stm32f10x_tim.o(i.TIM_SetIC1Prescaler), (18 bytes).
    Removing stm32f10x_tim.o(i.TIM_SetIC2Prescaler), (26 bytes).
    Removing stm32f10x_tim.o(i.TIM_SetIC3Prescaler), (18 bytes).
    Removing stm32f10x_tim.o(i.TIM_SetIC4Prescaler), (26 bytes).
    Removing stm32f10x_tim.o(i.TIM_TIxExternalClockConfig), (62 bytes).
    Removing stm32f10x_tim.o(i.TIM_TimeBaseStructInit), (18 bytes).
    Removing stm32f10x_tim.o(i.TIM_UpdateDisableConfig), (24 bytes).
    Removing stm32f10x_tim.o(i.TIM_UpdateRequestConfig), (24 bytes).
    Removing stm32f10x_usart.o(i.USART_ClearFlag), (18 bytes).
    Removing stm32f10x_usart.o(i.USART_ClearITPendingBit), (30 bytes).
    Removing stm32f10x_usart.o(i.USART_ClockInit), (34 bytes).
    Removing stm32f10x_usart.o(i.USART_ClockStructInit), (12 bytes).
    Removing stm32f10x_usart.o(i.USART_DMACmd), (18 bytes).
    Removing stm32f10x_usart.o(i.USART_HalfDuplexCmd), (24 bytes).
    Removing stm32f10x_usart.o(i.USART_IrDACmd), (24 bytes).
    Removing stm32f10x_usart.o(i.USART_IrDAConfig), (18 bytes).
    Removing stm32f10x_usart.o(i.USART_LINBreakDetectLengthConfig), (18 bytes).
    Removing stm32f10x_usart.o(i.USART_LINCmd), (24 bytes).
    Removing stm32f10x_usart.o(i.USART_OneBitMethodCmd), (24 bytes).
    Removing stm32f10x_usart.o(i.USART_OverSampling8Cmd), (22 bytes).
    Removing stm32f10x_usart.o(i.USART_ReceiverWakeUpCmd), (24 bytes).
    Removing stm32f10x_usart.o(i.USART_SendBreak), (10 bytes).
    Removing stm32f10x_usart.o(i.USART_SetAddress), (18 bytes).
    Removing stm32f10x_usart.o(i.USART_SetGuardTime), (16 bytes).
    Removing stm32f10x_usart.o(i.USART_SetPrescaler), (16 bytes).
    Removing stm32f10x_usart.o(i.USART_SmartCardCmd), (24 bytes).
    Removing stm32f10x_usart.o(i.USART_SmartCardNACKCmd), (24 bytes).
    Removing stm32f10x_usart.o(i.USART_StructInit), (24 bytes).
    Removing stm32f10x_usart.o(i.USART_WakeUpConfig), (18 bytes).
    Removing stm32f10x_wwdg.o(i.WWDG_ClearFlag), (12 bytes).
    Removing stm32f10x_wwdg.o(i.WWDG_DeInit), (22 bytes).
    Removing stm32f10x_wwdg.o(i.WWDG_Enable), (16 bytes).
    Removing stm32f10x_wwdg.o(i.WWDG_EnableIT), (12 bytes).
    Removing stm32f10x_wwdg.o(i.WWDG_GetFlagStatus), (12 bytes).
    Removing stm32f10x_wwdg.o(i.WWDG_SetCounter), (16 bytes).
    Removing stm32f10x_wwdg.o(i.WWDG_SetPrescaler), (24 bytes).
    Removing stm32f10x_wwdg.o(i.WWDG_SetWindowValue), (40 bytes).
    Removing deal_with.o(i.Warning_contorl_myself), (400 bytes).
    Removing beep.o(i.BEEP_GPIO_Config), (52 bytes).
    Removing fire.o(i.FIRE_CONFIG), (40 bytes).
    Removing malloc.o(i.my_mem_free), (108 bytes).
    Removing malloc.o(i.my_mem_init), (68 bytes).
    Removing malloc.o(i.my_mem_malloc), (168 bytes).
    Removing malloc.o(i.my_mem_perused), (64 bytes).
    Removing malloc.o(i.myfree), (36 bytes).
    Removing malloc.o(i.mymalloc), (40 bytes).
    Removing malloc.o(i.mymemcpy), (26 bytes).
    Removing malloc.o(i.mymemset), (20 bytes).
    Removing malloc.o(i.myrealloc), (68 bytes).
    Removing malloc.o(.bss), (43520 bytes).
    Removing malloc.o(.constdata), (24 bytes).
    Removing malloc.o(.data), (28 bytes).
    Removing relay.o(i.RELAY_GPIO_Config), (52 bytes).
    Removing clock.o(i.rt_system_tick_init), (2 bytes).
    Removing clock.o(i.rt_tick_from_millisecond), (32 bytes).
    Removing clock.o(i.rt_tick_set), (28 bytes).
    Removing idle.o(i.rt_thread_idle_gethandler), (8 bytes).
    Removing ipc.o(i.rt_event_control), (54 bytes).
    Removing ipc.o(i.rt_event_create), (38 bytes).
    Removing ipc.o(i.rt_event_delete), (22 bytes).
    Removing ipc.o(i.rt_event_detach), (22 bytes).
    Removing ipc.o(i.rt_event_init), (32 bytes).
    Removing ipc.o(i.rt_event_recv), (218 bytes).
    Removing ipc.o(i.rt_event_send), (180 bytes).
    Removing ipc.o(i.rt_ipc_list_resume_all), (50 bytes).
    Removing ipc.o(i.rt_mb_control), (66 bytes).
    Removing ipc.o(i.rt_mb_create), (82 bytes).
    Removing ipc.o(i.rt_mb_delete), (36 bytes).
    Removing ipc.o(i.rt_mb_detach), (30 bytes).
    Removing ipc.o(i.rt_mb_init), (62 bytes).
    Removing ipc.o(i.rt_mb_recv), (244 bytes).
    Removing ipc.o(i.rt_mb_send), (18 bytes).
    Removing ipc.o(i.rt_mb_send_wait), (246 bytes).
    Removing ipc.o(i.rt_mq_control), (82 bytes).
    Removing ipc.o(i.rt_mq_create), (128 bytes).
    Removing ipc.o(i.rt_mq_delete), (28 bytes).
    Removing ipc.o(i.rt_mq_detach), (22 bytes).
    Removing ipc.o(i.rt_mq_init), (104 bytes).
    Removing ipc.o(i.rt_mq_recv), (252 bytes).
    Removing ipc.o(i.rt_mq_send), (140 bytes).
    Removing ipc.o(i.rt_mq_urgent), (132 bytes).
    Removing ipc.o(i.rt_mutex_control), (8 bytes).
    Removing ipc.o(i.rt_mutex_create), (50 bytes).
    Removing ipc.o(i.rt_mutex_delete), (22 bytes).
    Removing ipc.o(i.rt_mutex_detach), (22 bytes).
    Removing ipc.o(i.rt_mutex_init), (44 bytes).
    Removing ipc.o(i.rt_mutex_release), (150 bytes).
    Removing ipc.o(i.rt_mutex_take), (192 bytes).
    Removing ipc.o(i.rt_sem_control), (54 bytes).
    Removing ipc.o(i.rt_sem_delete), (22 bytes).
    Removing ipc.o(i.rt_sem_detach), (22 bytes).
    Removing ipc.o(i.rt_sem_trytake), (14 bytes).
    Removing irq.o(i.rt_interrupt_get_nest), (12 bytes).
    Removing kservice.o(i._rt_errno), (36 bytes).
    Removing kservice.o(i.print_number), (396 bytes).
    Removing kservice.o(i.rt_free_align), (16 bytes).
    Removing kservice.o(i.rt_get_errno), (36 bytes).
    Removing kservice.o(i.rt_hw_console_output), (2 bytes).
    Removing kservice.o(i.rt_kputs), (18 bytes).
    Removing kservice.o(i.rt_malloc_align), (66 bytes).
    Removing kservice.o(i.rt_memcmp), (38 bytes).
    Removing kservice.o(i.rt_memcpy), (58 bytes).
    Removing kservice.o(i.rt_memmove), (66 bytes).
    Removing kservice.o(i.rt_set_errno), (40 bytes).
    Removing kservice.o(i.rt_snprintf), (38 bytes).
    Removing kservice.o(i.rt_sprintf), (34 bytes).
    Removing kservice.o(i.rt_strcasecmp), (48 bytes).
    Removing kservice.o(i.rt_strcmp), (28 bytes).
    Removing kservice.o(i.rt_strdup), (40 bytes).
    Removing kservice.o(i.rt_strlen), (18 bytes).
    Removing kservice.o(i.rt_strncmp), (40 bytes).
    Removing kservice.o(i.rt_strnlen), (24 bytes).
    Removing kservice.o(i.rt_strstr), (58 bytes).
    Removing kservice.o(i.rt_vsnprintf), (808 bytes).
    Removing kservice.o(i.rt_vsprintf), (22 bytes).
    Removing kservice.o(i.skip_atoi), (38 bytes).
    Removing kservice.o(.data), (4 bytes).
    Removing mem.o(i.rt_calloc), (34 bytes).
    Removing mem.o(i.rt_memory_info), (40 bytes).
    Removing mem.o(i.rt_realloc), (296 bytes).
    Removing mempool.o(i.rt_list_init), (6 bytes).
    Removing mempool.o(i.rt_list_isempty), (16 bytes).
    Removing mempool.o(i.rt_mp_alloc), (202 bytes).
    Removing mempool.o(i.rt_mp_create), (134 bytes).
    Removing mempool.o(i.rt_mp_delete), (70 bytes).
    Removing mempool.o(i.rt_mp_detach), (64 bytes).
    Removing mempool.o(i.rt_mp_free), (78 bytes).
    Removing mempool.o(i.rt_mp_init), (116 bytes).
    Removing object.o(i.rt_object_find), (86 bytes).
    Removing object.o(i.rt_system_object_init), (2 bytes).
    Removing scheduler.o(i.rt_critical_level), (12 bytes).
    Removing thread.o(i.rt_thread_control), (118 bytes).
    Removing thread.o(i.rt_thread_delete), (64 bytes).
    Removing thread.o(i.rt_thread_detach), (76 bytes).
    Removing thread.o(i.rt_thread_find), (82 bytes).
    Removing timer.o(i.rt_timer_create), (54 bytes).
    Removing timer.o(i.rt_timer_delete), (32 bytes).
    Removing timer.o(i.rt_timer_list_next_timeout), (28 bytes).
    Removing timer.o(i.rt_timer_next_timeout_tick), (16 bytes).
    Removing cpuport.o(i.rt_hw_cpu_shutdown), (28 bytes).
    Removing cpuport.o(i.rt_hw_exception_install), (12 bytes).
    Removing sys.o(.emb_text), (6 bytes).
    Removing sys.o(i.INTX_DISABLE), (4 bytes).
    Removing sys.o(i.INTX_ENABLE), (4 bytes).
    Removing sys.o(i.WFI_SET), (4 bytes).
    Removing usart.o(i.UART1_send_byte), (32 bytes).
    Removing hlk_tx510.o(i.HLK_TX510_Delete_FaceID), (44 bytes).
    Removing hlk_tx510.o(i.HLK_TX510_Send_ControlCmd), (28 bytes).
    Removing hlk_tx510.o(i.HLK_TX510_Send_DeleteCmd), (28 bytes).
    Removing ml302.o(i.ML302_CreateTCPSokcet), (144 bytes).
    Removing ml302.o(i.ML302_Dis_Re_Connect), (276 bytes).
    Removing ml302.o(i.ML302_Init_LBS), (588 bytes).
    Removing ml302.o(i.ML302_MQTTUNSUB), (176 bytes).
    Removing ml302.o(i.ML302_RECData), (48 bytes).
    Removing ml302.o(i.ML302_SendMessage), (168 bytes).
    Removing ml302.o(i.ML302_TCPSend), (124 bytes).
    Removing mq2_adc.o(i.MQ2_cumlate), (68 bytes).
    Removing oled.o(i.Delay_1ms), (26 bytes).
    Removing oled.o(i.Delay_50ms), (22 bytes).
    Removing oled.o(i.OLED_Display_Off), (28 bytes).
    Removing oled.o(i.OLED_Display_On), (28 bytes).
    Removing oled.o(i.OLED_DrawBMP), (118 bytes).
    Removing oled.o(i.OLED_On), (62 bytes).
    Removing oled.o(i.OLED_ShowCHinese), (104 bytes).
    Removing oled.o(i.fill_picture), (64 bytes).
    Removing oled.o(i.test), (42 bytes).
    Removing oled.o(.data), (768 bytes).
    Removing sht30.o(.bss), (20 bytes).
    Removing uart4.o(i.u4_printf), (72 bytes).
    Removing uart4.o(i.uart4_send), (48 bytes).
    Removing uart5.o(i.Uart5_SendByte), (30 bytes).
    Removing uart5.o(i.Uart5_SendString), (42 bytes).
    Removing usart2.o(i.UART2_send_byte), (32 bytes).
    Removing usart2.o(i.Uart2_SendStr), (40 bytes).
    Removing usart2.o(i._sys_exit), (4 bytes).
    Removing cdcmple.o(.text), (48 bytes).

566 unused section(s) (total 72032 bytes) removed from the image.

==============================================================================

Image Symbol Table

    Local Symbols

    Symbol Name                              Value     Ov Type        Size  Object(Section)

    ../clib/../cmprslib/zerorunl2.c          0x00000000   Number         0  __dczerorl2.o ABSOLUTE
    ../clib/microlib/ctype/ctype.c           0x00000000   Number         0  ctype_c.o ABSOLUTE
    ../clib/microlib/ctype/ctype.c           0x00000000   Number         0  isspace_c.o ABSOLUTE
    ../clib/microlib/division.c              0x00000000   Number         0  uldiv.o ABSOLUTE
    ../clib/microlib/division.c              0x00000000   Number         0  uidiv.o ABSOLUTE
    ../clib/microlib/errno.c                 0x00000000   Number         0  errno.o ABSOLUTE
    ../clib/microlib/init/entry.s            0x00000000   Number         0  entry11b.o ABSOLUTE
    ../clib/microlib/init/entry.s            0x00000000   Number         0  entry5.o ABSOLUTE
    ../clib/microlib/init/entry.s            0x00000000   Number         0  entry2.o ABSOLUTE
    ../clib/microlib/init/entry.s            0x00000000   Number         0  entry8b.o ABSOLUTE
    ../clib/microlib/init/entry.s            0x00000000   Number         0  entry7a.o ABSOLUTE
    ../clib/microlib/init/entry.s            0x00000000   Number         0  entry7b.o ABSOLUTE
    ../clib/microlib/init/entry.s            0x00000000   Number         0  entry8a.o ABSOLUTE
    ../clib/microlib/init/entry.s            0x00000000   Number         0  entry9a.o ABSOLUTE
    ../clib/microlib/init/entry.s            0x00000000   Number         0  entry10a.o ABSOLUTE
    ../clib/microlib/init/entry.s            0x00000000   Number         0  entry10b.o ABSOLUTE
    ../clib/microlib/init/entry.s            0x00000000   Number         0  entry9b.o ABSOLUTE
    ../clib/microlib/init/entry.s            0x00000000   Number         0  entry.o ABSOLUTE
    ../clib/microlib/init/entry.s            0x00000000   Number         0  entry11a.o ABSOLUTE
    ../clib/microlib/longlong.c              0x00000000   Number         0  llshl.o ABSOLUTE
    ../clib/microlib/longlong.c              0x00000000   Number         0  llushr.o ABSOLUTE
    ../clib/microlib/longlong.c              0x00000000   Number         0  llsshr.o ABSOLUTE
    ../clib/microlib/printf/printf.c         0x00000000   Number         0  printf2.o ABSOLUTE
    ../clib/microlib/printf/printf.c         0x00000000   Number         0  printf7.o ABSOLUTE
    ../clib/microlib/printf/printf.c         0x00000000   Number         0  printfa.o ABSOLUTE
    ../clib/microlib/printf/printf.c         0x00000000   Number         0  printf8.o ABSOLUTE
    ../clib/microlib/printf/printf.c         0x00000000   Number         0  printf4.o ABSOLUTE
    ../clib/microlib/printf/printf.c         0x00000000   Number         0  printf1.o ABSOLUTE
    ../clib/microlib/printf/printf.c         0x00000000   Number         0  printf0.o ABSOLUTE
    ../clib/microlib/printf/printf.c         0x00000000   Number         0  printfb.o ABSOLUTE
    ../clib/microlib/printf/printf.c         0x00000000   Number         0  printf6.o ABSOLUTE
    ../clib/microlib/printf/printf.c         0x00000000   Number         0  printf3.o ABSOLUTE
    ../clib/microlib/printf/printf.c         0x00000000   Number         0  printf5.o ABSOLUTE
    ../clib/microlib/printf/stubs.s          0x00000000   Number         0  stubs.o ABSOLUTE
    ../clib/microlib/string/memcpy.c         0x00000000   Number         0  memcpya.o ABSOLUTE
    ../clib/microlib/string/memcpy.c         0x00000000   Number         0  memcpyb.o ABSOLUTE
    ../clib/microlib/string/memset.c         0x00000000   Number         0  memseta.o ABSOLUTE
    ../clib/microlib/string/strcmp.c         0x00000000   Number         0  strcmp.o ABSOLUTE
    ../clib/microlib/string/strlen.c         0x00000000   Number         0  strlen.o ABSOLUTE
    ../clib/microlib/string/strstr.c         0x00000000   Number         0  strstr.o ABSOLUTE
    ../clib/microlib/stubs.s                 0x00000000   Number         0  useno.o ABSOLUTE
    ../clib/microlib/stubs.s                 0x00000000   Number         0  iusefp.o ABSOLUTE
    ../clib/scanf.c                          0x00000000   Number         0  __0sscanf.o ABSOLUTE
    ../clib/scanf.c                          0x00000000   Number         0  scanf_char.o ABSOLUTE
    ../clib/scanf.c                          0x00000000   Number         0  _sgetc.o ABSOLUTE
    ../clib/scanf.c                          0x00000000   Number         0  _scanf_str.o ABSOLUTE
    ../clib/scanf.c                          0x00000000   Number         0  _scanf.o ABSOLUTE
    ../fplib/microlib/d2f.c                  0x00000000   Number         0  d2f.o ABSOLUTE
    ../fplib/microlib/f2d.c                  0x00000000   Number         0  f2d.o ABSOLUTE
    ../fplib/microlib/fpadd.c                0x00000000   Number         0  dadd.o ABSOLUTE
    ../fplib/microlib/fpadd.c                0x00000000   Number         0  fadd.o ABSOLUTE
    ../fplib/microlib/fpdiv.c                0x00000000   Number         0  fdiv.o ABSOLUTE
    ../fplib/microlib/fpdiv.c                0x00000000   Number         0  ddiv.o ABSOLUTE
    ../fplib/microlib/fpepilogue.c           0x00000000   Number         0  fepilogue.o ABSOLUTE
    ../fplib/microlib/fpepilogue.c           0x00000000   Number         0  depilogue.o ABSOLUTE
    ../fplib/microlib/fpfix.c                0x00000000   Number         0  dfixi.o ABSOLUTE
    ../fplib/microlib/fpfix.c                0x00000000   Number         0  dfixul.o ABSOLUTE
    ../fplib/microlib/fpfix.c                0x00000000   Number         0  ffixi.o ABSOLUTE
    ../fplib/microlib/fpflt.c                0x00000000   Number         0  fflti.o ABSOLUTE
    ../fplib/microlib/fpflt.c                0x00000000   Number         0  dflti.o ABSOLUTE
    ../fplib/microlib/fpflt.c                0x00000000   Number         0  ffltui.o ABSOLUTE
    ../fplib/microlib/fpmul.c                0x00000000   Number         0  fmul.o ABSOLUTE
    ../fplib/microlib/fpmul.c                0x00000000   Number         0  dmul.o ABSOLUTE
    ../fplib/microlib/fpscalb.c              0x00000000   Number         0  dscalb.o ABSOLUTE
    ../fplib/microlib/fpsqrt.c               0x00000000   Number         0  dsqrt.o ABSOLUTE
    ../mathlib/dunder.c                      0x00000000   Number         0  dunder.o ABSOLUTE
    ../mathlib/fpclassify.c                  0x00000000   Number         0  fpclassify.o ABSOLUTE
    ../mathlib/poly.c                        0x00000000   Number         0  poly.o ABSOLUTE
    ../mathlib/pow.c                         0x00000000   Number         0  pow_x.o ABSOLUTE
    ../mathlib/pow.c                         0x00000000   Number         0  pow.o ABSOLUTE
    ../mathlib/qnan.c                        0x00000000   Number         0  qnan.o ABSOLUTE
    ../mathlib/sqrt.c                        0x00000000   Number         0  sqrt.o ABSOLUTE
    ../mathlib/sqrt.c                        0x00000000   Number         0  sqrt_x.o ABSOLUTE
    ..\HARDWARE\beep.c                       0x00000000   Number         0  beep.o ABSOLUTE
    ..\HARDWARE\fire.c                       0x00000000   Number         0  fire.o ABSOLUTE
    ..\HARDWARE\key_exti.c                   0x00000000   Number         0  key_exti.o ABSOLUTE
    ..\HARDWARE\led_test.c                   0x00000000   Number         0  led_test.o ABSOLUTE
    ..\HARDWARE\malloc.c                     0x00000000   Number         0  malloc.o ABSOLUTE
    ..\HARDWARE\relay.c                      0x00000000   Number         0  relay.o ABSOLUTE
    ..\HARDWARE\wdg.c                        0x00000000   Number         0  wdg.o ABSOLUTE
    ..\Libraries\CMSIS\core_cm3.c            0x00000000   Number         0  core_cm3.o ABSOLUTE
    ..\Libraries\CMSIS\startup\startup_stm32f10x_hd.s 0x00000000   Number         0  startup_stm32f10x_hd.o ABSOLUTE
    ..\Libraries\CMSIS\system_stm32f10x.c    0x00000000   Number         0  system_stm32f10x.o ABSOLUTE
    ..\Libraries\STM32F10x_StdPeriph_Driver\src\misc.c 0x00000000   Number         0  misc.o ABSOLUTE
    ..\Libraries\STM32F10x_StdPeriph_Driver\src\stm32f10x_adc.c 0x00000000   Number         0  stm32f10x_adc.o ABSOLUTE
    ..\Libraries\STM32F10x_StdPeriph_Driver\src\stm32f10x_bkp.c 0x00000000   Number         0  stm32f10x_bkp.o ABSOLUTE
    ..\Libraries\STM32F10x_StdPeriph_Driver\src\stm32f10x_can.c 0x00000000   Number         0  stm32f10x_can.o ABSOLUTE
    ..\Libraries\STM32F10x_StdPeriph_Driver\src\stm32f10x_cec.c 0x00000000   Number         0  stm32f10x_cec.o ABSOLUTE
    ..\Libraries\STM32F10x_StdPeriph_Driver\src\stm32f10x_crc.c 0x00000000   Number         0  stm32f10x_crc.o ABSOLUTE
    ..\Libraries\STM32F10x_StdPeriph_Driver\src\stm32f10x_dac.c 0x00000000   Number         0  stm32f10x_dac.o ABSOLUTE
    ..\Libraries\STM32F10x_StdPeriph_Driver\src\stm32f10x_dbgmcu.c 0x00000000   Number         0  stm32f10x_dbgmcu.o ABSOLUTE
    ..\Libraries\STM32F10x_StdPeriph_Driver\src\stm32f10x_dma.c 0x00000000   Number         0  stm32f10x_dma.o ABSOLUTE
    ..\Libraries\STM32F10x_StdPeriph_Driver\src\stm32f10x_exti.c 0x00000000   Number         0  stm32f10x_exti.o ABSOLUTE
    ..\Libraries\STM32F10x_StdPeriph_Driver\src\stm32f10x_flash.c 0x00000000   Number         0  stm32f10x_flash.o ABSOLUTE
    ..\Libraries\STM32F10x_StdPeriph_Driver\src\stm32f10x_fsmc.c 0x00000000   Number         0  stm32f10x_fsmc.o ABSOLUTE
    ..\Libraries\STM32F10x_StdPeriph_Driver\src\stm32f10x_gpio.c 0x00000000   Number         0  stm32f10x_gpio.o ABSOLUTE
    ..\Libraries\STM32F10x_StdPeriph_Driver\src\stm32f10x_i2c.c 0x00000000   Number         0  stm32f10x_i2c.o ABSOLUTE
    ..\Libraries\STM32F10x_StdPeriph_Driver\src\stm32f10x_iwdg.c 0x00000000   Number         0  stm32f10x_iwdg.o ABSOLUTE
    ..\Libraries\STM32F10x_StdPeriph_Driver\src\stm32f10x_pwr.c 0x00000000   Number         0  stm32f10x_pwr.o ABSOLUTE
    ..\Libraries\STM32F10x_StdPeriph_Driver\src\stm32f10x_rcc.c 0x00000000   Number         0  stm32f10x_rcc.o ABSOLUTE
    ..\Libraries\STM32F10x_StdPeriph_Driver\src\stm32f10x_rtc.c 0x00000000   Number         0  stm32f10x_rtc.o ABSOLUTE
    ..\Libraries\STM32F10x_StdPeriph_Driver\src\stm32f10x_sdio.c 0x00000000   Number         0  stm32f10x_sdio.o ABSOLUTE
    ..\Libraries\STM32F10x_StdPeriph_Driver\src\stm32f10x_spi.c 0x00000000   Number         0  stm32f10x_spi.o ABSOLUTE
    ..\Libraries\STM32F10x_StdPeriph_Driver\src\stm32f10x_tim.c 0x00000000   Number         0  stm32f10x_tim.o ABSOLUTE
    ..\Libraries\STM32F10x_StdPeriph_Driver\src\stm32f10x_usart.c 0x00000000   Number         0  stm32f10x_usart.o ABSOLUTE
    ..\Libraries\STM32F10x_StdPeriph_Driver\src\stm32f10x_wwdg.c 0x00000000   Number         0  stm32f10x_wwdg.o ABSOLUTE
    ..\SYSTEM\delay.c                        0x00000000   Number         0  delay.o ABSOLUTE
    ..\SYSTEM\sys.c                          0x00000000   Number         0  sys.o ABSOLUTE
    ..\SYSTEM\usart.c                        0x00000000   Number         0  usart.o ABSOLUTE
    ..\Sensor\GP2Y10_adc.c                   0x00000000   Number         0  gp2y10_adc.o ABSOLUTE
    ..\Sensor\GeneralTim.c                   0x00000000   Number         0  generaltim.o ABSOLUTE
    ..\Sensor\HLK_LD2410C.c                  0x00000000   Number         0  hlk_ld2410c.o ABSOLUTE
    ..\Sensor\HLK_TX510.c                    0x00000000   Number         0  hlk_tx510.o ABSOLUTE
    ..\Sensor\ML302.c                        0x00000000   Number         0  ml302.o ABSOLUTE
    ..\Sensor\MQ2_adc.c                      0x00000000   Number         0  mq2_adc.o ABSOLUTE
    ..\Sensor\SGP30.c                        0x00000000   Number         0  sgp30.o ABSOLUTE
    ..\Sensor\SHT30.c                        0x00000000   Number         0  sht30.o ABSOLUTE
    ..\Sensor\oled.c                         0x00000000   Number         0  oled.o ABSOLUTE
    ..\Sensor\timer_MQ2.c                    0x00000000   Number         0  timer_mq2.o ABSOLUTE
    ..\Sensor\uart4.c                        0x00000000   Number         0  uart4.o ABSOLUTE
    ..\Sensor\uart5.c                        0x00000000   Number         0  uart5.o ABSOLUTE
    ..\Sensor\usart2.c                       0x00000000   Number         0  usart2.o ABSOLUTE
    ..\Sensor\usart3.c                       0x00000000   Number         0  usart3.o ABSOLUTE
    ..\User\board.c                          0x00000000   Number         0  board.o ABSOLUTE
    ..\User\deal_with.c                      0x00000000   Number         0  deal_with.o ABSOLUTE
    ..\User\main.c                           0x00000000   Number         0  main.o ABSOLUTE
    ..\User\stm32f10x_it.c                   0x00000000   Number         0  stm32f10x_it.o ABSOLUTE
    ..\User\test.c                           0x00000000   Number         0  test.o ABSOLUTE
    ..\\Libraries\\CMSIS\\core_cm3.c         0x00000000   Number         0  core_cm3.o ABSOLUTE
    ..\\SYSTEM\\sys.c                        0x00000000   Number         0  sys.o ABSOLUTE
    ..\rt-thread\libcpu\arm\cortex-m3\context_rvds.S 0x00000000   Number         0  context_rvds.o ABSOLUTE
    ..\rt-thread\libcpu\arm\cortex-m3\cpuport.c 0x00000000   Number         0  cpuport.o ABSOLUTE
    ..\rt-thread\src\clock.c                 0x00000000   Number         0  clock.o ABSOLUTE
    ..\rt-thread\src\components.c            0x00000000   Number         0  components.o ABSOLUTE
    ..\rt-thread\src\device.c                0x00000000   Number         0  device.o ABSOLUTE
    ..\rt-thread\src\idle.c                  0x00000000   Number         0  idle.o ABSOLUTE
    ..\rt-thread\src\ipc.c                   0x00000000   Number         0  ipc.o ABSOLUTE
    ..\rt-thread\src\irq.c                   0x00000000   Number         0  irq.o ABSOLUTE
    ..\rt-thread\src\kservice.c              0x00000000   Number         0  kservice.o ABSOLUTE
    ..\rt-thread\src\mem.c                   0x00000000   Number         0  mem.o ABSOLUTE
    ..\rt-thread\src\memheap.c               0x00000000   Number         0  memheap.o ABSOLUTE
    ..\rt-thread\src\mempool.c               0x00000000   Number         0  mempool.o ABSOLUTE
    ..\rt-thread\src\object.c                0x00000000   Number         0  object.o ABSOLUTE
    ..\rt-thread\src\scheduler.c             0x00000000   Number         0  scheduler.o ABSOLUTE
    ..\rt-thread\src\signal.c                0x00000000   Number         0  signal.o ABSOLUTE
    ..\rt-thread\src\thread.c                0x00000000   Number         0  thread.o ABSOLUTE
    ..\rt-thread\src\timer.c                 0x00000000   Number         0  timer.o ABSOLUTE
    cdcmple.s                                0x00000000   Number         0  cdcmple.o ABSOLUTE
    cdrcmple.s                               0x00000000   Number         0  cdrcmple.o ABSOLUTE
    cfcmple.s                                0x00000000   Number         0  cfcmple.o ABSOLUTE
    cfrcmple.s                               0x00000000   Number         0  cfrcmple.o ABSOLUTE
    dc.s                                     0x00000000   Number         0  dc.o ABSOLUTE
    handlers.s                               0x00000000   Number         0  handlers.o ABSOLUTE
    init.s                                   0x00000000   Number         0  init.o ABSOLUTE
    RESET                                    0x08000000   Section      304  startup_stm32f10x_hd.o(RESET)
    .ARM.Collect$$$$00000000                 0x08000130   Section        0  entry.o(.ARM.Collect$$$$00000000)
    .ARM.Collect$$$$00000001                 0x08000130   Section        4  entry2.o(.ARM.Collect$$$$00000001)
    .ARM.Collect$$$$00000004                 0x08000134   Section        4  entry5.o(.ARM.Collect$$$$00000004)
    .ARM.Collect$$$$00000008                 0x08000138   Section        0  entry7b.o(.ARM.Collect$$$$00000008)
    .ARM.Collect$$$$0000000A                 0x08000138   Section        0  entry8b.o(.ARM.Collect$$$$0000000A)
    .ARM.Collect$$$$0000000B                 0x08000138   Section        8  entry9a.o(.ARM.Collect$$$$0000000B)
    .ARM.Collect$$$$0000000D                 0x08000140   Section        0  entry10a.o(.ARM.Collect$$$$0000000D)
    .ARM.Collect$$$$0000000F                 0x08000140   Section        0  entry11a.o(.ARM.Collect$$$$0000000F)
    .ARM.Collect$$$$00002712                 0x08000140   Section        4  entry2.o(.ARM.Collect$$$$00002712)
    __lit__00000000                          0x08000140   Data           4  entry2.o(.ARM.Collect$$$$00002712)
    .text                                    0x08000144   Section       36  startup_stm32f10x_hd.o(.text)
    .text                                    0x08000168   Section      240  context_rvds.o(.text)
    .text                                    0x08000258   Section        0  memcpya.o(.text)
    .text                                    0x0800027c   Section        0  memseta.o(.text)
    .text                                    0x080002a0   Section        0  strstr.o(.text)
    .text                                    0x080002c4   Section        0  strlen.o(.text)
    .text                                    0x080002d2   Section        0  strcmp.o(.text)
    .text                                    0x080002f0   Section        0  __0sscanf.o(.text)
    .text                                    0x08000328   Section        0  _scanf_str.o(.text)
    .text                                    0x08000408   Section        0  fadd.o(.text)
    .text                                    0x080004b8   Section        0  fmul.o(.text)
    .text                                    0x0800051c   Section        0  fdiv.o(.text)
    .text                                    0x08000598   Section        0  dadd.o(.text)
    .text                                    0x080006e6   Section        0  dmul.o(.text)
    .text                                    0x080007ca   Section        0  ddiv.o(.text)
    .text                                    0x080008a8   Section        0  fflti.o(.text)
    .text                                    0x080008ba   Section        0  ffltui.o(.text)
    .text                                    0x080008c4   Section        0  ffixi.o(.text)
    .text                                    0x080008f6   Section        0  dfixi.o(.text)
    .text                                    0x08000934   Section        0  f2d.o(.text)
    .text                                    0x0800095c   Section       48  cdrcmple.o(.text)
    .text                                    0x0800098c   Section        0  d2f.o(.text)
    .text                                    0x080009c4   Section       20  cfcmple.o(.text)
    .text                                    0x080009d8   Section       20  cfrcmple.o(.text)
    .text                                    0x080009ec   Section        0  uidiv.o(.text)
    .text                                    0x08000a18   Section        0  uldiv.o(.text)
    .text                                    0x08000a7a   Section        0  llshl.o(.text)
    .text                                    0x08000a98   Section        0  llushr.o(.text)
    .text                                    0x08000ab8   Section        0  llsshr.o(.text)
    .text                                    0x08000adc   Section        0  scanf_char.o(.text)
    _scanf_char_input                        0x08000add   Thumb Code    12  scanf_char.o(.text)
    .text                                    0x08000b04   Section        0  _sgetc.o(.text)
    .text                                    0x08000b44   Section        0  iusefp.o(.text)
    .text                                    0x08000b44   Section        0  fepilogue.o(.text)
    .text                                    0x08000bb2   Section        0  depilogue.o(.text)
    .text                                    0x08000c6c   Section        0  dscalb.o(.text)
    .text                                    0x08000c9a   Section        0  dflti.o(.text)
    .text                                    0x08000cbc   Section        0  dfixul.o(.text)
    .text                                    0x08000cec   Section       36  init.o(.text)
    .text                                    0x08000d10   Section        0  isspace_c.o(.text)
    .text                                    0x08000d1c   Section        0  _scanf.o(.text)
    .text                                    0x08001048   Section        0  dsqrt.o(.text)
    .text                                    0x080010ec   Section        0  ctype_c.o(.text)
    .text                                    0x08001114   Section        0  __dczerorl2.o(.text)
    i.$Sub$$main                             0x0800116a   Section        0  components.o(i.$Sub$$main)
    i.ADC_ClearFlag                          0x08001178   Section        0  stm32f10x_adc.o(i.ADC_ClearFlag)
    i.ADC_Cmd                                0x0800117e   Section        0  stm32f10x_adc.o(i.ADC_Cmd)
    i.ADC_DeInit                             0x08001194   Section        0  stm32f10x_adc.o(i.ADC_DeInit)
    i.ADC_GetCalibrationStatus               0x080011f0   Section        0  stm32f10x_adc.o(i.ADC_GetCalibrationStatus)
    i.ADC_GetConversionValue                 0x08001204   Section        0  stm32f10x_adc.o(i.ADC_GetConversionValue)
    i.ADC_GetFlagStatus                      0x0800120c   Section        0  stm32f10x_adc.o(i.ADC_GetFlagStatus)
    i.ADC_GetResetCalibrationStatus          0x0800121e   Section        0  stm32f10x_adc.o(i.ADC_GetResetCalibrationStatus)
    i.ADC_Init                               0x08001234   Section        0  stm32f10x_adc.o(i.ADC_Init)
    i.ADC_RegularChannelConfig               0x08001284   Section        0  stm32f10x_adc.o(i.ADC_RegularChannelConfig)
    i.ADC_ResetCalibration                   0x0800133c   Section        0  stm32f10x_adc.o(i.ADC_ResetCalibration)
    i.ADC_SoftwareStartConvCmd               0x08001346   Section        0  stm32f10x_adc.o(i.ADC_SoftwareStartConvCmd)
    i.ADC_StartCalibration                   0x0800135c   Section        0  stm32f10x_adc.o(i.ADC_StartCalibration)
    i.BusFault_Handler                       0x08001366   Section        0  stm32f10x_it.o(i.BusFault_Handler)
    i.Calculate_SGP30                        0x0800136a   Section        0  deal_with.o(i.Calculate_SGP30)
    i.Calculate_SHT30                        0x08001390   Section        0  deal_with.o(i.Calculate_SHT30)
    i.Clear_Buffer                           0x08001484   Section        0  usart2.o(i.Clear_Buffer)
    i.Clear_Buffer_separate                  0x080014b4   Section        0  usart2.o(i.Clear_Buffer_separate)
    i.Collect_data                           0x080014dc   Section        0  gp2y10_adc.o(i.Collect_data)
    i.DataGet_LD2410C                        0x08001548   Section        0  hlk_ld2410c.o(i.DataGet_LD2410C)
    i.Dealwith_HLK_TX510                     0x080015ec   Section        0  hlk_tx510.o(i.Dealwith_HLK_TX510)
    i.DebugMon_Handler                       0x080016a4   Section        0  stm32f10x_it.o(i.DebugMon_Handler)
    i.EXTI0_IRQHandler                       0x080016a8   Section        0  stm32f10x_it.o(i.EXTI0_IRQHandler)
    i.EXTI15_10_IRQHandler                   0x080016c4   Section        0  stm32f10x_it.o(i.EXTI15_10_IRQHandler)
    i.EXTI_ClearITPendingBit                 0x080016e4   Section        0  stm32f10x_exti.o(i.EXTI_ClearITPendingBit)
    i.EXTI_GetITStatus                       0x080016f0   Section        0  stm32f10x_exti.o(i.EXTI_GetITStatus)
    i.EXTI_Init                              0x08001718   Section        0  stm32f10x_exti.o(i.EXTI_Init)
    i.EXTI_Key_Config                        0x080017ac   Section        0  key_exti.o(i.EXTI_Key_Config)
    i.Face_recognition_myself                0x08001840   Section        0  deal_with.o(i.Face_recognition_myself)
    i.GENERAL_TIM_Init                       0x0800189c   Section        0  generaltim.o(i.GENERAL_TIM_Init)
    i.GENERAL_TIM_Mode_Config                0x080018a8   Section        0  generaltim.o(i.GENERAL_TIM_Mode_Config)
    GENERAL_TIM_Mode_Config                  0x080018a9   Thumb Code    68  generaltim.o(i.GENERAL_TIM_Mode_Config)
    i.GENERAL_TIM_NVIC_Config                0x080018ec   Section        0  generaltim.o(i.GENERAL_TIM_NVIC_Config)
    GENERAL_TIM_NVIC_Config                  0x080018ed   Thumb Code    42  generaltim.o(i.GENERAL_TIM_NVIC_Config)
    i.GP2Y_ADC_Init                          0x08001916   Section        0  gp2y10_adc.o(i.GP2Y_ADC_Init)
    i.GP2Y_Convert                           0x08001924   Section        0  gp2y10_adc.o(i.GP2Y_Convert)
    i.GP2Y_GPIO_Config                       0x080019d4   Section        0  gp2y10_adc.o(i.GP2Y_GPIO_Config)
    GP2Y_GPIO_Config                         0x080019d5   Thumb Code    76  gp2y10_adc.o(i.GP2Y_GPIO_Config)
    i.GP2Y_GetDate                           0x08001a24   Section        0  gp2y10_adc.o(i.GP2Y_GetDate)
    i.GP2Y_GetDens                           0x08001a50   Section        0  gp2y10_adc.o(i.GP2Y_GetDens)
    i.GP2Y_Mode_Config                       0x08001a60   Section        0  gp2y10_adc.o(i.GP2Y_Mode_Config)
    GP2Y_Mode_Config                         0x08001a61   Thumb Code   116  gp2y10_adc.o(i.GP2Y_Mode_Config)
    i.GPIO_EXTILineConfig                    0x08001ad8   Section        0  stm32f10x_gpio.o(i.GPIO_EXTILineConfig)
    i.GPIO_Init                              0x08001b18   Section        0  stm32f10x_gpio.o(i.GPIO_Init)
    i.GPIO_ReadInputDataBit                  0x08001c2e   Section        0  stm32f10x_gpio.o(i.GPIO_ReadInputDataBit)
    i.GPIO_ResetBits                         0x08001c40   Section        0  stm32f10x_gpio.o(i.GPIO_ResetBits)
    i.GPIO_SetBits                           0x08001c44   Section        0  stm32f10x_gpio.o(i.GPIO_SetBits)
    i.Get_MQ2_ADC                            0x08001c48   Section        0  mq2_adc.o(i.Get_MQ2_ADC)
    i.Get_MQ2_ADC_Average                    0x08001c7c   Section        0  mq2_adc.o(i.Get_MQ2_ADC_Average)
    i.Getting_Data_myself                    0x08001cac   Section        0  deal_with.o(i.Getting_Data_myself)
    i.HLK_TX510_ClearDate                    0x08001d00   Section        0  hlk_tx510.o(i.HLK_TX510_ClearDate)
    i.HLK_TX510_DeleteAll_FaceID             0x08001d40   Section        0  hlk_tx510.o(i.HLK_TX510_DeleteAll_FaceID)
    i.HLK_TX510_Enroll_FaceID                0x08001d6c   Section        0  hlk_tx510.o(i.HLK_TX510_Enroll_FaceID)
    i.HLK_TX510_Identify_FaceID              0x08001d98   Section        0  hlk_tx510.o(i.HLK_TX510_Identify_FaceID)
    i.HLK_TX510_Receive_Byte                 0x08001dc4   Section        0  hlk_tx510.o(i.HLK_TX510_Receive_Byte)
    i.HLK_TX510_Send_DeleteAllCmd            0x08001e9c   Section        0  hlk_tx510.o(i.HLK_TX510_Send_DeleteAllCmd)
    i.HLK_TX510_Send_FaceCmd                 0x08001eb8   Section        0  hlk_tx510.o(i.HLK_TX510_Send_FaceCmd)
    i.IIC_ACK                                0x08001ed4   Section        0  sht30.o(i.IIC_ACK)
    i.IIC_NACK                               0x08001f18   Section        0  sht30.o(i.IIC_NACK)
    i.IIC_RcvByte                            0x08001f5c   Section        0  sht30.o(i.IIC_RcvByte)
    i.IIC_SendByte                           0x08001fb4   Section        0  sht30.o(i.IIC_SendByte)
    i.IIC_Start                              0x08002014   Section        0  sht30.o(i.IIC_Start)
    i.IIC_Start_oled                         0x0800204c   Section        0  oled.o(i.IIC_Start_oled)
    i.IIC_Stop                               0x08002074   Section        0  sht30.o(i.IIC_Stop)
    i.IIC_Stop_oled                          0x080020b0   Section        0  oled.o(i.IIC_Stop_oled)
    i.IIC_Wait_Ack_oled                      0x080020d0   Section        0  oled.o(i.IIC_Wait_Ack_oled)
    i.IIC_wait_ACK                           0x080020e8   Section        0  sht30.o(i.IIC_wait_ACK)
    i.IWDG_Enable                            0x08002168   Section        0  stm32f10x_iwdg.o(i.IWDG_Enable)
    i.IWDG_Feed                              0x08002178   Section        0  wdg.o(i.IWDG_Feed)
    i.IWDG_Init                              0x08002180   Section        0  wdg.o(i.IWDG_Init)
    i.IWDG_ReloadCounter                     0x080021a4   Section        0  stm32f10x_iwdg.o(i.IWDG_ReloadCounter)
    i.IWDG_SetPrescaler                      0x080021b4   Section        0  stm32f10x_iwdg.o(i.IWDG_SetPrescaler)
    i.IWDG_SetReload                         0x080021c0   Section        0  stm32f10x_iwdg.o(i.IWDG_SetReload)
    i.IWDG_WriteAccessCmd                    0x080021cc   Section        0  stm32f10x_iwdg.o(i.IWDG_WriteAccessCmd)
    i.Init_myself                            0x080021d8   Section        0  deal_with.o(i.Init_myself)
    i.LED_GPIO_Config                        0x08002254   Section        0  led_test.o(i.LED_GPIO_Config)
    i.ML302_Init                             0x080022b4   Section        0  ml302.o(i.ML302_Init)
    i.ML302_Init_MQTT                        0x08002360   Section        0  ml302.o(i.ML302_Init_MQTT)
    i.ML302_Init_call                        0x0800257c   Section        0  ml302.o(i.ML302_Init_call)
    i.ML302_Init_text                        0x08002744   Section        0  ml302.o(i.ML302_Init_text)
    i.ML302_MQTTInit                         0x08002978   Section        0  ml302.o(i.ML302_MQTTInit)
    i.ML302_MQTTPUBMessage_STM32             0x08002a90   Section        0  ml302.o(i.ML302_MQTTPUBMessage_STM32)
    i.ML302_MQTTPUBMessage_WeChat            0x08002b54   Section        0  ml302.o(i.ML302_MQTTPUBMessage_WeChat)
    i.ML302_MQTTSUB                          0x08002be8   Section        0  ml302.o(i.ML302_MQTTSUB)
    i.ML302_MQTT_RECData                     0x08002c9c   Section        0  ml302.o(i.ML302_MQTT_RECData)
    i.MQ2_ADC_Init                           0x080033a4   Section        0  mq2_adc.o(i.MQ2_ADC_Init)
    i.MQ2_GetPPM                             0x08003438   Section        0  mq2_adc.o(i.MQ2_GetPPM)
    i.MemManage_Handler                      0x0800354c   Section        0  stm32f10x_it.o(i.MemManage_Handler)
    i.NMI_Handler                            0x08003550   Section        0  stm32f10x_it.o(i.NMI_Handler)
    i.NVIC_Configuration                     0x08003552   Section        0  key_exti.o(i.NVIC_Configuration)
    NVIC_Configuration                       0x08003553   Thumb Code    50  key_exti.o(i.NVIC_Configuration)
    i.NVIC_Configuration                     0x08003584   Section        0  uart5.o(i.NVIC_Configuration)
    NVIC_Configuration                       0x08003585   Thumb Code    38  uart5.o(i.NVIC_Configuration)
    i.NVIC_Init                              0x080035ac   Section        0  misc.o(i.NVIC_Init)
    i.NVIC_PriorityGroupConfig               0x0800361c   Section        0  misc.o(i.NVIC_PriorityGroupConfig)
    i.OLED_Clear                             0x08003630   Section        0  oled.o(i.OLED_Clear)
    i.OLED_Init                              0x08003670   Section        0  oled.o(i.OLED_Init)
    i.OLED_Set_Pos                           0x08003784   Section        0  oled.o(i.OLED_Set_Pos)
    i.OLED_ShowChar                          0x080037ac   Section        0  oled.o(i.OLED_ShowChar)
    i.OLED_ShowNum                           0x08003850   Section        0  oled.o(i.OLED_ShowNum)
    i.OLED_ShowString                        0x080038d8   Section        0  oled.o(i.OLED_ShowString)
    i.OLED_Showdecimal                       0x08003912   Section        0  oled.o(i.OLED_Showdecimal)
    i.OLED_WR_Byte                           0x08003a32   Section        0  oled.o(i.OLED_WR_Byte)
    i.OSD_myself                             0x08003a4c   Section        0  deal_with.o(i.OSD_myself)
    i.RCC_ADCCLKConfig                       0x08003ad8   Section        0  stm32f10x_rcc.o(i.RCC_ADCCLKConfig)
    i.RCC_APB1PeriphClockCmd                 0x08003af0   Section        0  stm32f10x_rcc.o(i.RCC_APB1PeriphClockCmd)
    i.RCC_APB1PeriphResetCmd                 0x08003b10   Section        0  stm32f10x_rcc.o(i.RCC_APB1PeriphResetCmd)
    i.RCC_APB2PeriphClockCmd                 0x08003b30   Section        0  stm32f10x_rcc.o(i.RCC_APB2PeriphClockCmd)
    i.RCC_APB2PeriphResetCmd                 0x08003b50   Section        0  stm32f10x_rcc.o(i.RCC_APB2PeriphResetCmd)
    i.RCC_GetClocksFreq                      0x08003b70   Section        0  stm32f10x_rcc.o(i.RCC_GetClocksFreq)
    i.SDA_IN                                 0x08003c44   Section        0  sgp30.o(i.SDA_IN)
    i.SDA_OUT                                0x08003c68   Section        0  sgp30.o(i.SDA_OUT)
    i.SGP30_GPIO_Init                        0x08003c8c   Section        0  sgp30.o(i.SGP30_GPIO_Init)
    i.SGP30_IIC_Ack                          0x08003cc4   Section        0  sgp30.o(i.SGP30_IIC_Ack)
    i.SGP30_IIC_NAck                         0x08003cfc   Section        0  sgp30.o(i.SGP30_IIC_NAck)
    i.SGP30_IIC_Read_Byte                    0x08003d34   Section        0  sgp30.o(i.SGP30_IIC_Read_Byte)
    i.SGP30_IIC_Send_Byte                    0x08003d98   Section        0  sgp30.o(i.SGP30_IIC_Send_Byte)
    i.SGP30_IIC_Start                        0x08003dfc   Section        0  sgp30.o(i.SGP30_IIC_Start)
    i.SGP30_IIC_Stop                         0x08003e34   Section        0  sgp30.o(i.SGP30_IIC_Stop)
    i.SGP30_IIC_Wait_Ack                     0x08003e68   Section        0  sgp30.o(i.SGP30_IIC_Wait_Ack)
    i.SGP30_Init                             0x08003ec0   Section        0  sgp30.o(i.SGP30_Init)
    i.SGP30_Read                             0x08003ed0   Section        0  sgp30.o(i.SGP30_Read)
    i.SGP30_Write                            0x08003f18   Section        0  sgp30.o(i.SGP30_Write)
    i.SHT30_In                               0x08003f4c   Section        0  sht30.o(i.SHT30_In)
    i.SHT30_Init                             0x08003f70   Section        0  sht30.o(i.SHT30_Init)
    i.SHT30_Out                              0x08003fb0   Section        0  sht30.o(i.SHT30_Out)
    i.SHT30_read_result                      0x08003fd4   Section        0  sht30.o(i.SHT30_read_result)
    i.SVC_Handler                            0x0800408e   Section        0  stm32f10x_it.o(i.SVC_Handler)
    i.SetSysClock                            0x08004090   Section        0  system_stm32f10x.o(i.SetSysClock)
    SetSysClock                              0x08004091   Thumb Code     8  system_stm32f10x.o(i.SetSysClock)
    i.SetSysClockTo72                        0x08004098   Section        0  system_stm32f10x.o(i.SetSysClockTo72)
    SetSysClockTo72                          0x08004099   Thumb Code   214  system_stm32f10x.o(i.SetSysClockTo72)
    i.SysTick_CLKSourceConfig                0x08004178   Section        0  misc.o(i.SysTick_CLKSourceConfig)
    i.SysTick_Handler                        0x080041a0   Section        0  board.o(i.SysTick_Handler)
    i.SystemInit                             0x080041b0   Section        0  system_stm32f10x.o(i.SystemInit)
    i.TIM2_IRQHandler                        0x08004210   Section        0  stm32f10x_it.o(i.TIM2_IRQHandler)
    i.TIM7_IRQHandler                        0x080042c4   Section        0  timer_mq2.o(i.TIM7_IRQHandler)
    i.TIM7_Init                              0x080042ec   Section        0  timer_mq2.o(i.TIM7_Init)
    i.TIM_ClearFlag                          0x0800434c   Section        0  stm32f10x_tim.o(i.TIM_ClearFlag)
    i.TIM_ClearITPendingBit                  0x08004352   Section        0  stm32f10x_tim.o(i.TIM_ClearITPendingBit)
    i.TIM_Cmd                                0x08004358   Section        0  stm32f10x_tim.o(i.TIM_Cmd)
    i.TIM_GetITStatus                        0x08004370   Section        0  stm32f10x_tim.o(i.TIM_GetITStatus)
    i.TIM_ITConfig                           0x08004392   Section        0  stm32f10x_tim.o(i.TIM_ITConfig)
    i.TIM_TimeBaseInit                       0x080043a4   Section        0  stm32f10x_tim.o(i.TIM_TimeBaseInit)
    i.UART4_IRQHandler                       0x08004448   Section        0  uart4.o(i.UART4_IRQHandler)
    i.UART5_Config                           0x08004510   Section        0  uart5.o(i.UART5_Config)
    i.UART5_IRQHandler                       0x080045a0   Section        0  uart5.o(i.UART5_IRQHandler)
    i.USART1_IRQHandler                      0x080045e8   Section        0  usart.o(i.USART1_IRQHandler)
    i.USART2_IRQHandler                      0x08004678   Section        0  usart2.o(i.USART2_IRQHandler)
    i.USART3_Configuration                   0x080046bc   Section        0  usart3.o(i.USART3_Configuration)
    USART3_Configuration                     0x080046bd   Thumb Code    80  usart3.o(i.USART3_Configuration)
    i.USART3_GPIO_Configuration              0x08004710   Section        0  usart3.o(i.USART3_GPIO_Configuration)
    USART3_GPIO_Configuration                0x08004711   Thumb Code    54  usart3.o(i.USART3_GPIO_Configuration)
    i.USART3_IRQHandler                      0x0800474c   Section        0  usart3.o(i.USART3_IRQHandler)
    i.USART3_Init                            0x080047a0   Section        0  usart3.o(i.USART3_Init)
    i.USART3_NVIC_Configuration              0x080047b8   Section        0  usart3.o(i.USART3_NVIC_Configuration)
    USART3_NVIC_Configuration                0x080047b9   Thumb Code    36  usart3.o(i.USART3_NVIC_Configuration)
    i.USART3_RCC_Configuration               0x080047e0   Section        0  usart3.o(i.USART3_RCC_Configuration)
    USART3_RCC_Configuration                 0x080047e1   Thumb Code    20  usart3.o(i.USART3_RCC_Configuration)
    i.USART3_SendByte                        0x080047f4   Section        0  usart3.o(i.USART3_SendByte)
    i.USART_Cmd                              0x08004814   Section        0  stm32f10x_usart.o(i.USART_Cmd)
    i.USART_DeInit                           0x0800482c   Section        0  stm32f10x_usart.o(i.USART_DeInit)
    i.USART_GetFlagStatus                    0x080048c8   Section        0  stm32f10x_usart.o(i.USART_GetFlagStatus)
    i.USART_GetITStatus                      0x080048e2   Section        0  stm32f10x_usart.o(i.USART_GetITStatus)
    i.USART_ITConfig                         0x08004936   Section        0  stm32f10x_usart.o(i.USART_ITConfig)
    i.USART_Init                             0x08004980   Section        0  stm32f10x_usart.o(i.USART_Init)
    i.USART_ReceiveData                      0x08004a58   Section        0  stm32f10x_usart.o(i.USART_ReceiveData)
    i.USART_SendData                         0x08004a62   Section        0  stm32f10x_usart.o(i.USART_SendData)
    i.Uart1_SendStr                          0x08004a6c   Section        0  usart.o(i.Uart1_SendStr)
    i.Upload_Receive_Data_STM32              0x08004a94   Section        0  deal_with.o(i.Upload_Receive_Data_STM32)
    i.Upload_Receive_Data_wechat             0x08004af0   Section        0  deal_with.o(i.Upload_Receive_Data_wechat)
    i.UsageFault_Handler                     0x08004b54   Section        0  stm32f10x_it.o(i.UsageFault_Handler)
    i.Write_IIC_Byte                         0x08004b58   Section        0  oled.o(i.Write_IIC_Byte)
    i.Write_IIC_Command                      0x08004bac   Section        0  oled.o(i.Write_IIC_Command)
    i.Write_IIC_Data                         0x08004bd8   Section        0  oled.o(i.Write_IIC_Data)
    i.__0printf                              0x08004c04   Section        0  printfa.o(i.__0printf)
    i.__0vsnprintf                           0x08004c24   Section        0  printfa.o(i.__0vsnprintf)
    i.__ARM_fpclassify                       0x08004c50   Section        0  fpclassify.o(i.__ARM_fpclassify)
    i.__kernel_poly                          0x08004c78   Section        0  poly.o(i.__kernel_poly)
    i.__mathlib_dbl_divzero                  0x08004d24   Section        0  dunder.o(i.__mathlib_dbl_divzero)
    i.__mathlib_dbl_infnan2                  0x08004d34   Section        0  dunder.o(i.__mathlib_dbl_infnan2)
    i.__mathlib_dbl_invalid                  0x08004d38   Section        0  dunder.o(i.__mathlib_dbl_invalid)
    i.__mathlib_dbl_overflow                 0x08004d44   Section        0  dunder.o(i.__mathlib_dbl_overflow)
    i.__mathlib_dbl_underflow                0x08004d54   Section        0  dunder.o(i.__mathlib_dbl_underflow)
    i.__rt_ffs                               0x08004d64   Section        0  kservice.o(i.__rt_ffs)
    i.__scatterload_copy                     0x08004db0   Section       14  handlers.o(i.__scatterload_copy)
    i.__scatterload_null                     0x08004dbe   Section        2  handlers.o(i.__scatterload_null)
    i.__scatterload_zeroinit                 0x08004dc0   Section       14  handlers.o(i.__scatterload_zeroinit)
    i.__set_errno                            0x08004dd0   Section        0  errno.o(i.__set_errno)
    i._fp_digits                             0x08004ddc   Section        0  printfa.o(i._fp_digits)
    _fp_digits                               0x08004ddd   Thumb Code   366  printfa.o(i._fp_digits)
    i._has_defunct_thread                    0x08004f60   Section        0  idle.o(i._has_defunct_thread)
    _has_defunct_thread                      0x08004f61   Thumb Code    16  idle.o(i._has_defunct_thread)
    i._printf_core                           0x08004f74   Section        0  printfa.o(i._printf_core)
    _printf_core                             0x08004f75   Thumb Code  1744  printfa.o(i._printf_core)
    i._printf_post_padding                   0x08005650   Section        0  printfa.o(i._printf_post_padding)
    _printf_post_padding                     0x08005651   Thumb Code    36  printfa.o(i._printf_post_padding)
    i._printf_pre_padding                    0x08005674   Section        0  printfa.o(i._printf_pre_padding)
    _printf_pre_padding                      0x08005675   Thumb Code    46  printfa.o(i._printf_pre_padding)
    i._rt_thread_init                        0x080056a4   Section        0  thread.o(i._rt_thread_init)
    _rt_thread_init                          0x080056a5   Thumb Code   124  thread.o(i._rt_thread_init)
    i._rt_timer_init                         0x08005728   Section        0  timer.o(i._rt_timer_init)
    _rt_timer_init                           0x08005729   Thumb Code    66  timer.o(i._rt_timer_init)
    i._rt_timer_remove                       0x0800576a   Section        0  timer.o(i._rt_timer_remove)
    _rt_timer_remove                         0x0800576b   Thumb Code    46  timer.o(i._rt_timer_remove)
    i._snputc                                0x08005798   Section        0  printfa.o(i._snputc)
    _snputc                                  0x08005799   Thumb Code    22  printfa.o(i._snputc)
    i.communication_thread_entry             0x080057b0   Section        0  main.o(i.communication_thread_entry)
    communication_thread_entry               0x080057b1   Thumb Code    40  main.o(i.communication_thread_entry)
    i.deal_with                              0x080057dc   Section        0  deal_with.o(i.deal_with)
    i.delay_init                             0x08005838   Section        0  delay.o(i.delay_init)
    i.delay_ms                               0x0800588c   Section        0  delay.o(i.delay_ms)
    i.delay_osschedlock                      0x080058dc   Section        0  delay.o(i.delay_osschedlock)
    i.delay_osschedunlock                    0x080058e4   Section        0  delay.o(i.delay_osschedunlock)
    i.delay_ostimedly                        0x080058ec   Section        0  delay.o(i.delay_ostimedly)
    i.delay_s                                0x080058f8   Section        0  delay.o(i.delay_s)
    i.delay_us                               0x08005910   Section        0  delay.o(i.delay_us)
    i.fputc                                  0x08005968   Section        0  usart2.o(i.fputc)
    i.main                                   0x08005984   Section        0  main.o(i.main)
    i.main_thread_entry                      0x08005ad8   Section        0  components.o(i.main_thread_entry)
    i.oled_pow                               0x08005ae6   Section        0  oled.o(i.oled_pow)
    i.perform_DeleteAllFace                  0x08005afc   Section        0  hlk_tx510.o(i.perform_DeleteAllFace)
    i.perform_DeleteFace                     0x08005b20   Section        0  hlk_tx510.o(i.perform_DeleteFace)
    i.perform_EnrollFace                     0x08005b44   Section        0  hlk_tx510.o(i.perform_EnrollFace)
    i.perform_IdentifyFace                   0x08005b68   Section        0  hlk_tx510.o(i.perform_IdentifyFace)
    i.plug_holes                             0x08005b8c   Section        0  mem.o(i.plug_holes)
    plug_holes                               0x08005b8d   Thumb Code   108  mem.o(i.plug_holes)
    i.pow                                    0x08005c04   Section        0  pow.o(i.pow)
    i.printf_myself                          0x080065dc   Section        0  deal_with.o(i.printf_myself)
    i.recognition_thread_entry               0x080066ec   Section        0  main.o(i.recognition_thread_entry)
    recognition_thread_entry                 0x080066ed   Thumb Code    24  main.o(i.recognition_thread_entry)
    i.rt_application_init                    0x08006708   Section        0  components.o(i.rt_application_init)
    i.rt_components_board_init               0x08006734   Section        0  components.o(i.rt_components_board_init)
    i.rt_components_init                     0x08006750   Section        0  components.o(i.rt_components_init)
    i.rt_enter_critical                      0x0800676c   Section        0  scheduler.o(i.rt_enter_critical)
    i.rt_exit_critical                       0x0800678c   Section        0  scheduler.o(i.rt_exit_critical)
    i.rt_free                                0x080067c8   Section        0  mem.o(i.rt_free)
    i.rt_heap_begin_get                      0x080068a8   Section        0  board.o(i.rt_heap_begin_get)
    i.rt_heap_end_get                        0x080068b0   Section        0  board.o(i.rt_heap_end_get)
    i.rt_hw_board_init                       0x080068b8   Section        0  board.o(i.rt_hw_board_init)
    i.rt_hw_console_output                   0x08006934   Section        0  board.o(i.rt_hw_console_output)
    i.rt_hw_hard_fault_exception             0x08006984   Section        0  cpuport.o(i.rt_hw_hard_fault_exception)
    i.rt_hw_stack_init                       0x08006b84   Section        0  cpuport.o(i.rt_hw_stack_init)
    i.rt_interrupt_enter                     0x08006bd0   Section        0  irq.o(i.rt_interrupt_enter)
    i.rt_interrupt_leave                     0x08006bf0   Section        0  irq.o(i.rt_interrupt_leave)
    i.rt_ipc_list_resume                     0x08006c10   Section        0  ipc.o(i.rt_ipc_list_resume)
    rt_ipc_list_resume                       0x08006c11   Thumb Code    20  ipc.o(i.rt_ipc_list_resume)
    i.rt_ipc_list_suspend                    0x08006c24   Section        0  ipc.o(i.rt_ipc_list_suspend)
    rt_ipc_list_suspend                      0x08006c25   Thumb Code   108  ipc.o(i.rt_ipc_list_suspend)
    i.rt_ipc_object_init                     0x08006c90   Section        0  ipc.o(i.rt_ipc_object_init)
    rt_ipc_object_init                       0x08006c91   Thumb Code    16  ipc.o(i.rt_ipc_object_init)
    i.rt_kprintf                             0x08006ca0   Section        0  kservice.o(i.rt_kprintf)
    i.rt_list_init                           0x08006cd0   Section        0  ipc.o(i.rt_list_init)
    rt_list_init                             0x08006cd1   Thumb Code     6  ipc.o(i.rt_list_init)
    i.rt_list_init                           0x08006cd6   Section        0  scheduler.o(i.rt_list_init)
    rt_list_init                             0x08006cd7   Thumb Code     6  scheduler.o(i.rt_list_init)
    i.rt_list_init                           0x08006cdc   Section        0  timer.o(i.rt_list_init)
    rt_list_init                             0x08006cdd   Thumb Code     6  timer.o(i.rt_list_init)
    i.rt_list_insert_after                   0x08006ce2   Section        0  object.o(i.rt_list_insert_after)
    rt_list_insert_after                     0x08006ce3   Thumb Code    14  object.o(i.rt_list_insert_after)
    i.rt_list_insert_after                   0x08006cf0   Section        0  thread.o(i.rt_list_insert_after)
    rt_list_insert_after                     0x08006cf1   Thumb Code    14  thread.o(i.rt_list_insert_after)
    i.rt_list_insert_after                   0x08006cfe   Section        0  timer.o(i.rt_list_insert_after)
    rt_list_insert_after                     0x08006cff   Thumb Code    14  timer.o(i.rt_list_insert_after)
    i.rt_list_insert_before                  0x08006d0c   Section        0  ipc.o(i.rt_list_insert_before)
    rt_list_insert_before                    0x08006d0d   Thumb Code    14  ipc.o(i.rt_list_insert_before)
    i.rt_list_isempty                        0x08006d1a   Section        0  ipc.o(i.rt_list_isempty)
    rt_list_isempty                          0x08006d1b   Thumb Code    16  ipc.o(i.rt_list_isempty)
    i.rt_list_isempty                        0x08006d2a   Section        0  timer.o(i.rt_list_isempty)
    rt_list_isempty                          0x08006d2b   Thumb Code    16  timer.o(i.rt_list_isempty)
    i.rt_list_remove                         0x08006d3a   Section        0  object.o(i.rt_list_remove)
    rt_list_remove                           0x08006d3b   Thumb Code    18  object.o(i.rt_list_remove)
    i.rt_list_remove                         0x08006d4c   Section        0  thread.o(i.rt_list_remove)
    rt_list_remove                           0x08006d4d   Thumb Code    18  thread.o(i.rt_list_remove)
    i.rt_malloc                              0x08006d60   Section        0  mem.o(i.rt_malloc)
    i.rt_memset                              0x08006ecc   Section        0  kservice.o(i.rt_memset)
    i.rt_object_allocate                     0x08006ee0   Section        0  object.o(i.rt_object_allocate)
    i.rt_object_delete                       0x08006f2a   Section        0  object.o(i.rt_object_delete)
    i.rt_object_detach                       0x08006f4a   Section        0  object.o(i.rt_object_detach)
    i.rt_object_get_information              0x08006f64   Section        0  object.o(i.rt_object_get_information)
    i.rt_object_init                         0x08006f8c   Section        0  object.o(i.rt_object_init)
    i.rt_object_is_systemobject              0x08006fc8   Section        0  object.o(i.rt_object_is_systemobject)
    i.rt_schedule                            0x08006fdc   Section        0  scheduler.o(i.rt_schedule)
    i.rt_schedule_insert_thread              0x0800706c   Section        0  scheduler.o(i.rt_schedule_insert_thread)
    i.rt_schedule_remove_thread              0x080070bc   Section        0  scheduler.o(i.rt_schedule_remove_thread)
    i.rt_sem_create                          0x08007110   Section        0  ipc.o(i.rt_sem_create)
    i.rt_sem_init                            0x0800713a   Section        0  ipc.o(i.rt_sem_init)
    i.rt_sem_release                         0x08007160   Section        0  ipc.o(i.rt_sem_release)
    i.rt_sem_take                            0x0800719a   Section        0  ipc.o(i.rt_sem_take)
    i.rt_show_version                        0x08007210   Section        0  kservice.o(i.rt_show_version)
    i.rt_strncpy                             0x080072c0   Section        0  kservice.o(i.rt_strncpy)
    i.rt_system_heap_init                    0x080072f4   Section        0  mem.o(i.rt_system_heap_init)
    i.rt_system_scheduler_init               0x080073ec   Section        0  scheduler.o(i.rt_system_scheduler_init)
    i.rt_system_scheduler_start              0x08007438   Section        0  scheduler.o(i.rt_system_scheduler_start)
    i.rt_system_timer_init                   0x08007468   Section        0  timer.o(i.rt_system_timer_init)
    i.rt_system_timer_thread_init            0x08007484   Section        0  timer.o(i.rt_system_timer_thread_init)
    i.rt_thread_create                       0x08007486   Section        0  thread.o(i.rt_thread_create)
    i.rt_thread_delay                        0x080074d6   Section        0  thread.o(i.rt_thread_delay)
    i.rt_thread_exit                         0x080074e4   Section        0  thread.o(i.rt_thread_exit)
    i.rt_thread_idle_entry                   0x08007538   Section        0  idle.o(i.rt_thread_idle_entry)
    rt_thread_idle_entry                     0x08007539   Thumb Code     8  idle.o(i.rt_thread_idle_entry)
    i.rt_thread_idle_excute                  0x08007540   Section        0  idle.o(i.rt_thread_idle_excute)
    i.rt_thread_idle_init                    0x080075c4   Section        0  idle.o(i.rt_thread_idle_init)
    i.rt_thread_init                         0x08007600   Section        0  thread.o(i.rt_thread_init)
    i.rt_thread_resume                       0x08007634   Section        0  thread.o(i.rt_thread_resume)
    i.rt_thread_self                         0x08007670   Section        0  thread.o(i.rt_thread_self)
    i.rt_thread_sleep                        0x0800767c   Section        0  thread.o(i.rt_thread_sleep)
    i.rt_thread_startup                      0x080076c0   Section        0  thread.o(i.rt_thread_startup)
    i.rt_thread_suspend                      0x080076ec   Section        0  thread.o(i.rt_thread_suspend)
    i.rt_thread_timeout                      0x08007730   Section        0  thread.o(i.rt_thread_timeout)
    i.rt_thread_yield                        0x08007750   Section        0  thread.o(i.rt_thread_yield)
    i.rt_tick_get                            0x080077b4   Section        0  clock.o(i.rt_tick_get)
    i.rt_tick_increase                       0x080077c0   Section        0  clock.o(i.rt_tick_increase)
    i.rt_timer_check                         0x080077f0   Section        0  timer.o(i.rt_timer_check)
    i.rt_timer_control                       0x0800786c   Section        0  timer.o(i.rt_timer_control)
    i.rt_timer_detach                        0x080078a4   Section        0  timer.o(i.rt_timer_detach)
    i.rt_timer_init                          0x080078c4   Section        0  timer.o(i.rt_timer_init)
    i.rt_timer_start                         0x080078f4   Section        0  timer.o(i.rt_timer_start)
    i.rt_timer_stop                          0x080079ec   Section        0  timer.o(i.rt_timer_stop)
    i.rti_board_end                          0x08007a1c   Section        0  components.o(i.rti_board_end)
    rti_board_end                            0x08007a1d   Thumb Code     4  components.o(i.rti_board_end)
    i.rti_board_start                        0x08007a20   Section        0  components.o(i.rti_board_start)
    rti_board_start                          0x08007a21   Thumb Code     4  components.o(i.rti_board_start)
    i.rti_end                                0x08007a24   Section        0  components.o(i.rti_end)
    rti_end                                  0x08007a25   Thumb Code     4  components.o(i.rti_end)
    i.rti_start                              0x08007a28   Section        0  components.o(i.rti_start)
    rti_start                                0x08007a29   Thumb Code     4  components.o(i.rti_start)
    i.rtthread_startup                       0x08007a2c   Section        0  components.o(i.rtthread_startup)
    i.sensor_thread_entry                    0x08007a58   Section        0  main.o(i.sensor_thread_entry)
    sensor_thread_entry                      0x08007a59   Thumb Code    32  main.o(i.sensor_thread_entry)
    i.sqrt                                   0x08007a7c   Section        0  sqrt.o(i.sqrt)
    i.uart2_init                             0x08007ac8   Section        0  usart2.o(i.uart2_init)
    i.uart4_init                             0x08007b70   Section        0  uart4.o(i.uart4_init)
    i.uart_init                              0x08007c30   Section        0  usart.o(i.uart_init)
    .constdata                               0x08007cd0   Section      290  kservice.o(.constdata)
    small_digits                             0x08007dd0   Data          17  kservice.o(.constdata)
    large_digits                             0x08007de1   Data          17  kservice.o(.constdata)
    .constdata                               0x08007df2   Section     2072  oled.o(.constdata)
    .constdata                               0x08008610   Section      136  pow.o(.constdata)
    bp                                       0x08008610   Data          16  pow.o(.constdata)
    dp_h                                     0x08008620   Data          16  pow.o(.constdata)
    dp_l                                     0x08008630   Data          16  pow.o(.constdata)
    L                                        0x08008640   Data          48  pow.o(.constdata)
    P                                        0x08008670   Data          40  pow.o(.constdata)
    .constdata                               0x08008698   Section        8  qnan.o(.constdata)
    .constdata                               0x080086a0   Section       64  ctype_c.o(.constdata)
    .conststring                             0x080086e0   Section     1284  ml302.o(.conststring)
    .rti_fn.0                                0x08008be4   Section        4  components.o(.rti_fn.0)
    __tagsym$$used                           0x08008be4   Number         0  components.o(.rti_fn.0)
    .rti_fn.0.end                            0x08008be8   Section        4  components.o(.rti_fn.0.end)
    __tagsym$$used                           0x08008be8   Number         0  components.o(.rti_fn.0.end)
    .rti_fn.1.end                            0x08008bec   Section        4  components.o(.rti_fn.1.end)
    __tagsym$$used                           0x08008bec   Number         0  components.o(.rti_fn.1.end)
    .rti_fn.6.end                            0x08008bf0   Section        4  components.o(.rti_fn.6.end)
    __tagsym$$used                           0x08008bf0   Number         0  components.o(.rti_fn.6.end)
    .data                                    0x20000000   Section       20  system_stm32f10x.o(.data)
    .data                                    0x20000014   Section       20  stm32f10x_rcc.o(.data)
    APBAHBPrescTable                         0x20000014   Data          16  stm32f10x_rcc.o(.data)
    ADCPrescTable                            0x20000024   Data           4  stm32f10x_rcc.o(.data)
    .data                                    0x20000028   Section       24  main.o(.data)
    communication_thread                     0x20000028   Data           4  main.o(.data)
    sensor_thread                            0x2000002c   Data           4  main.o(.data)
    recognition_thread                       0x20000030   Data           4  main.o(.data)
    .data                                    0x20000040   Section      185  deal_with.o(.data)
    .data                                    0x200000fc   Section        4  clock.o(.data)
    rt_tick                                  0x200000fc   Data           4  clock.o(.data)
    .data                                    0x20000100   Section        1  irq.o(.data)
    .data                                    0x20000104   Section       24  mem.o(.data)
    heap_ptr                                 0x20000104   Data           4  mem.o(.data)
    heap_end                                 0x20000108   Data           4  mem.o(.data)
    lfree                                    0x2000010c   Data           4  mem.o(.data)
    mem_size_aligned                         0x20000110   Data           4  mem.o(.data)
    used_mem                                 0x20000114   Data           4  mem.o(.data)
    max_mem                                  0x20000118   Data           4  mem.o(.data)
    .data                                    0x2000011c   Section      128  object.o(.data)
    rt_object_container                      0x2000011c   Data         128  object.o(.data)
    .data                                    0x2000019c   Section       24  scheduler.o(.data)
    rt_scheduler_lock_nest                   0x2000019c   Data           2  scheduler.o(.data)
    .data                                    0x200001b4   Section       12  timer.o(.data)
    rt_timer_list                            0x200001b4   Data           8  timer.o(.data)
    random_nr                                0x200001bc   Data           4  timer.o(.data)
    .data                                    0x200001c0   Section       16  cpuport.o(.data)
    rt_exception_hook                        0x200001cc   Data           4  cpuport.o(.data)
    .data                                    0x200001d0   Section        5  delay.o(.data)
    fac_us                                   0x200001d0   Data           1  delay.o(.data)
    fac_ms                                   0x200001d2   Data           2  delay.o(.data)
    .data                                    0x200001d6   Section        2  usart.o(.data)
    .data                                    0x200001d8   Section        1  gp2y10_adc.o(.data)
    k                                        0x200001d8   Data           1  gp2y10_adc.o(.data)
    .data                                    0x200001d9   Section      132  hlk_tx510.o(.data)
    .data                                    0x20000260   Section       73  ml302.o(.data)
    .data                                    0x200002ac   Section        8  mq2_adc.o(.data)
    R0                                       0x200002ac   Data           4  mq2_adc.o(.data)
    .data                                    0x200002b4   Section        1  uart4.o(.data)
    .data                                    0x200002b8   Section        6  usart2.o(.data)
    .data                                    0x200002c0   Section        4  errno.o(.data)
    _errno                                   0x200002c0   Data           4  errno.o(.data)
    .bss                                     0x200002c4   Section     4096  board.o(.bss)
    rt_heap                                  0x200002c4   Data        4096  board.o(.bss)
    .bss                                     0x200012c4   Section      384  idle.o(.bss)
    idle                                     0x200012c4   Data         128  idle.o(.bss)
    rt_thread_stack                          0x20001344   Data         256  idle.o(.bss)
    .bss                                     0x20001444   Section      128  kservice.o(.bss)
    rt_log_buf                               0x20001444   Data         128  kservice.o(.bss)
    .bss                                     0x200014c4   Section       32  mem.o(.bss)
    heap_sem                                 0x200014c4   Data          32  mem.o(.bss)
    .bss                                     0x200014e4   Section       64  scheduler.o(.bss)
    .bss                                     0x20001524   Section      200  usart.o(.bss)
    .bss                                     0x200015ec   Section       40  gp2y10_adc.o(.bss)
    buffer                                   0x200015ec   Data          40  gp2y10_adc.o(.bss)
    .bss                                     0x20001614   Section     1340  hlk_ld2410c.o(.bss)
    .bss                                     0x20001b50   Section      108  hlk_tx510.o(.bss)
    .bss                                     0x20001bbc   Section       22  ml302.o(.bss)
    .bss                                     0x20001bd8   Section     1640  uart4.o(.bss)
    .bss                                     0x20002240   Section      185  usart2.o(.bss)
    STACK                                    0x20002300   Section     1024  startup_stm32f10x_hd.o(STACK)
    .ARM.__AT_0x68000000                     0x68000000   Section    983040  malloc.o(.ARM.__AT_0x68000000)
    .ARM.__AT_0x680F0000                     0x680f0000   Section    61440  malloc.o(.ARM.__AT_0x680F0000)

    Global Symbols

    Symbol Name                              Value     Ov Type        Size  Object(Section)

    BuildAttributes$$THM_ISAv4$P$D$K$B$S$PE$A:L22UL41UL21$X:L11$S22US41US21$IEEE1$IW$USESV6$~STKCKD$USESV7$~SHL$OTIME$ROPI$IEEEX$EBA8$MICROLIB$REQ8$PRES8$EABIv2 0x00000000   Number         0  anon$$obj.o ABSOLUTE
    __ARM_use_no_argv                        0x00000000   Number         0  main.o ABSOLUTE
    __use_no_errno                           0x00000000   Number         0  useno.o ABSOLUTE
    __use_no_exception_handling              0x00000000   Number         0  useno.o ABSOLUTE
    __use_no_fp                              0x00000000   Number         0  useno.o ABSOLUTE
    __use_no_heap                            0x00000000   Number         0  useno.o ABSOLUTE
    __use_no_heap_region                     0x00000000   Number         0  useno.o ABSOLUTE
    __use_no_semihosting                     0x00000000   Number         0  useno.o ABSOLUTE
    __use_no_semihosting_swi                 0x00000000   Number         0  useno.o ABSOLUTE
    __use_no_signal_handling                 0x00000000   Number         0  useno.o ABSOLUTE
    _printf_a                                0x00000000   Number         0  stubs.o ABSOLUTE
    _printf_c                                0x00000000   Number         0  stubs.o ABSOLUTE
    _printf_charcount                        0x00000000   Number         0  stubs.o ABSOLUTE
    _printf_d                                0x00000000   Number         0  stubs.o ABSOLUTE
    _printf_e                                0x00000000   Number         0  stubs.o ABSOLUTE
    _printf_f                                0x00000000   Number         0  stubs.o ABSOLUTE
    _printf_flags                            0x00000000   Number         0  stubs.o ABSOLUTE
    _printf_fp_dec                           0x00000000   Number         0  stubs.o ABSOLUTE
    _printf_fp_hex                           0x00000000   Number         0  stubs.o ABSOLUTE
    _printf_g                                0x00000000   Number         0  stubs.o ABSOLUTE
    _printf_i                                0x00000000   Number         0  stubs.o ABSOLUTE
    _printf_int_dec                          0x00000000   Number         0  stubs.o ABSOLUTE
    _printf_l                                0x00000000   Number         0  stubs.o ABSOLUTE
    _printf_lc                               0x00000000   Number         0  stubs.o ABSOLUTE
    _printf_ll                               0x00000000   Number         0  stubs.o ABSOLUTE
    _printf_lld                              0x00000000   Number         0  stubs.o ABSOLUTE
    _printf_lli                              0x00000000   Number         0  stubs.o ABSOLUTE
    _printf_llo                              0x00000000   Number         0  stubs.o ABSOLUTE
    _printf_llu                              0x00000000   Number         0  stubs.o ABSOLUTE
    _printf_llx                              0x00000000   Number         0  stubs.o ABSOLUTE
    _printf_longlong_dec                     0x00000000   Number         0  stubs.o ABSOLUTE
    _printf_longlong_hex                     0x00000000   Number         0  stubs.o ABSOLUTE
    _printf_longlong_oct                     0x00000000   Number         0  stubs.o ABSOLUTE
    _printf_ls                               0x00000000   Number         0  stubs.o ABSOLUTE
    _printf_mbtowc                           0x00000000   Number         0  stubs.o ABSOLUTE
    _printf_n                                0x00000000   Number         0  stubs.o ABSOLUTE
    _printf_o                                0x00000000   Number         0  stubs.o ABSOLUTE
    _printf_p                                0x00000000   Number         0  stubs.o ABSOLUTE
    _printf_percent                          0x00000000   Number         0  stubs.o ABSOLUTE
    _printf_pre_padding                      0x00000000   Number         0  stubs.o ABSOLUTE
    _printf_return_value                     0x00000000   Number         0  stubs.o ABSOLUTE
    _printf_s                                0x00000000   Number         0  stubs.o ABSOLUTE
    _printf_sizespec                         0x00000000   Number         0  stubs.o ABSOLUTE
    _printf_str                              0x00000000   Number         0  stubs.o ABSOLUTE
    _printf_truncate_signed                  0x00000000   Number         0  stubs.o ABSOLUTE
    _printf_truncate_unsigned                0x00000000   Number         0  stubs.o ABSOLUTE
    _printf_u                                0x00000000   Number         0  stubs.o ABSOLUTE
    _printf_wc                               0x00000000   Number         0  stubs.o ABSOLUTE
    _printf_wctomb                           0x00000000   Number         0  stubs.o ABSOLUTE
    _printf_widthprec                        0x00000000   Number         0  stubs.o ABSOLUTE
    _printf_x                                0x00000000   Number         0  stubs.o ABSOLUTE
    __cpp_initialize__aeabi_                  - Undefined Weak Reference
    __cxa_finalize                            - Undefined Weak Reference
    _clock_init                               - Undefined Weak Reference
    _microlib_exit                            - Undefined Weak Reference
    _scanf_int                                - Undefined Weak Reference
    _scanf_longlong                           - Undefined Weak Reference
    _scanf_real                               - Undefined Weak Reference
    __Vectors_Size                           0x00000130   Number         0  startup_stm32f10x_hd.o ABSOLUTE
    __Vectors                                0x08000000   Data           4  startup_stm32f10x_hd.o(RESET)
    __Vectors_End                            0x08000130   Data           0  startup_stm32f10x_hd.o(RESET)
    __main                                   0x08000131   Thumb Code     0  entry.o(.ARM.Collect$$$$00000000)
    _main_stk                                0x08000131   Thumb Code     0  entry2.o(.ARM.Collect$$$$00000001)
    _main_scatterload                        0x08000135   Thumb Code     0  entry5.o(.ARM.Collect$$$$00000004)
    __main_after_scatterload                 0x08000139   Thumb Code     0  entry5.o(.ARM.Collect$$$$00000004)
    _main_clock                              0x08000139   Thumb Code     0  entry7b.o(.ARM.Collect$$$$00000008)
    _main_cpp_init                           0x08000139   Thumb Code     0  entry8b.o(.ARM.Collect$$$$0000000A)
    _main_init                               0x08000139   Thumb Code     0  entry9a.o(.ARM.Collect$$$$0000000B)
    __rt_final_cpp                           0x08000141   Thumb Code     0  entry10a.o(.ARM.Collect$$$$0000000D)
    __rt_final_exit                          0x08000141   Thumb Code     0  entry11a.o(.ARM.Collect$$$$0000000F)
    Reset_Handler                            0x08000145   Thumb Code     8  startup_stm32f10x_hd.o(.text)
    ADC1_2_IRQHandler                        0x0800015f   Thumb Code     0  startup_stm32f10x_hd.o(.text)
    ADC3_IRQHandler                          0x0800015f   Thumb Code     0  startup_stm32f10x_hd.o(.text)
    CAN1_RX1_IRQHandler                      0x0800015f   Thumb Code     0  startup_stm32f10x_hd.o(.text)
    CAN1_SCE_IRQHandler                      0x0800015f   Thumb Code     0  startup_stm32f10x_hd.o(.text)
    DMA1_Channel1_IRQHandler                 0x0800015f   Thumb Code     0  startup_stm32f10x_hd.o(.text)
    DMA1_Channel2_IRQHandler                 0x0800015f   Thumb Code     0  startup_stm32f10x_hd.o(.text)
    DMA1_Channel3_IRQHandler                 0x0800015f   Thumb Code     0  startup_stm32f10x_hd.o(.text)
    DMA1_Channel4_IRQHandler                 0x0800015f   Thumb Code     0  startup_stm32f10x_hd.o(.text)
    DMA1_Channel5_IRQHandler                 0x0800015f   Thumb Code     0  startup_stm32f10x_hd.o(.text)
    DMA1_Channel6_IRQHandler                 0x0800015f   Thumb Code     0  startup_stm32f10x_hd.o(.text)
    DMA1_Channel7_IRQHandler                 0x0800015f   Thumb Code     0  startup_stm32f10x_hd.o(.text)
    DMA2_Channel1_IRQHandler                 0x0800015f   Thumb Code     0  startup_stm32f10x_hd.o(.text)
    DMA2_Channel2_IRQHandler                 0x0800015f   Thumb Code     0  startup_stm32f10x_hd.o(.text)
    DMA2_Channel3_IRQHandler                 0x0800015f   Thumb Code     0  startup_stm32f10x_hd.o(.text)
    DMA2_Channel4_5_IRQHandler               0x0800015f   Thumb Code     0  startup_stm32f10x_hd.o(.text)
    EXTI1_IRQHandler                         0x0800015f   Thumb Code     0  startup_stm32f10x_hd.o(.text)
    EXTI2_IRQHandler                         0x0800015f   Thumb Code     0  startup_stm32f10x_hd.o(.text)
    EXTI3_IRQHandler                         0x0800015f   Thumb Code     0  startup_stm32f10x_hd.o(.text)
    EXTI4_IRQHandler                         0x0800015f   Thumb Code     0  startup_stm32f10x_hd.o(.text)
    EXTI9_5_IRQHandler                       0x0800015f   Thumb Code     0  startup_stm32f10x_hd.o(.text)
    FLASH_IRQHandler                         0x0800015f   Thumb Code     0  startup_stm32f10x_hd.o(.text)
    FSMC_IRQHandler                          0x0800015f   Thumb Code     0  startup_stm32f10x_hd.o(.text)
    I2C1_ER_IRQHandler                       0x0800015f   Thumb Code     0  startup_stm32f10x_hd.o(.text)
    I2C1_EV_IRQHandler                       0x0800015f   Thumb Code     0  startup_stm32f10x_hd.o(.text)
    I2C2_ER_IRQHandler                       0x0800015f   Thumb Code     0  startup_stm32f10x_hd.o(.text)
    I2C2_EV_IRQHandler                       0x0800015f   Thumb Code     0  startup_stm32f10x_hd.o(.text)
    PVD_IRQHandler                           0x0800015f   Thumb Code     0  startup_stm32f10x_hd.o(.text)
    RCC_IRQHandler                           0x0800015f   Thumb Code     0  startup_stm32f10x_hd.o(.text)
    RTCAlarm_IRQHandler                      0x0800015f   Thumb Code     0  startup_stm32f10x_hd.o(.text)
    RTC_IRQHandler                           0x0800015f   Thumb Code     0  startup_stm32f10x_hd.o(.text)
    SDIO_IRQHandler                          0x0800015f   Thumb Code     0  startup_stm32f10x_hd.o(.text)
    SPI1_IRQHandler                          0x0800015f   Thumb Code     0  startup_stm32f10x_hd.o(.text)
    SPI2_IRQHandler                          0x0800015f   Thumb Code     0  startup_stm32f10x_hd.o(.text)
    SPI3_IRQHandler                          0x0800015f   Thumb Code     0  startup_stm32f10x_hd.o(.text)
    TAMPER_IRQHandler                        0x0800015f   Thumb Code     0  startup_stm32f10x_hd.o(.text)
    TIM1_BRK_IRQHandler                      0x0800015f   Thumb Code     0  startup_stm32f10x_hd.o(.text)
    TIM1_CC_IRQHandler                       0x0800015f   Thumb Code     0  startup_stm32f10x_hd.o(.text)
    TIM1_TRG_COM_IRQHandler                  0x0800015f   Thumb Code     0  startup_stm32f10x_hd.o(.text)
    TIM1_UP_IRQHandler                       0x0800015f   Thumb Code     0  startup_stm32f10x_hd.o(.text)
    TIM3_IRQHandler                          0x0800015f   Thumb Code     0  startup_stm32f10x_hd.o(.text)
    TIM4_IRQHandler                          0x0800015f   Thumb Code     0  startup_stm32f10x_hd.o(.text)
    TIM5_IRQHandler                          0x0800015f   Thumb Code     0  startup_stm32f10x_hd.o(.text)
    TIM6_IRQHandler                          0x0800015f   Thumb Code     0  startup_stm32f10x_hd.o(.text)
    TIM8_BRK_IRQHandler                      0x0800015f   Thumb Code     0  startup_stm32f10x_hd.o(.text)
    TIM8_CC_IRQHandler                       0x0800015f   Thumb Code     0  startup_stm32f10x_hd.o(.text)
    TIM8_TRG_COM_IRQHandler                  0x0800015f   Thumb Code     0  startup_stm32f10x_hd.o(.text)
    TIM8_UP_IRQHandler                       0x0800015f   Thumb Code     0  startup_stm32f10x_hd.o(.text)
    USBWakeUp_IRQHandler                     0x0800015f   Thumb Code     0  startup_stm32f10x_hd.o(.text)
    USB_HP_CAN1_TX_IRQHandler                0x0800015f   Thumb Code     0  startup_stm32f10x_hd.o(.text)
    USB_LP_CAN1_RX0_IRQHandler               0x0800015f   Thumb Code     0  startup_stm32f10x_hd.o(.text)
    WWDG_IRQHandler                          0x0800015f   Thumb Code     0  startup_stm32f10x_hd.o(.text)
    rt_hw_interrupt_disable                  0x08000169   Thumb Code     8  context_rvds.o(.text)
    rt_hw_interrupt_enable                   0x08000171   Thumb Code     6  context_rvds.o(.text)
    rt_hw_context_switch                     0x08000177   Thumb Code    32  context_rvds.o(.text)
    rt_hw_context_switch_interrupt           0x08000177   Thumb Code     0  context_rvds.o(.text)
    PendSV_Handler                           0x08000197   Thumb Code    60  context_rvds.o(.text)
    rt_hw_context_switch_to                  0x080001d3   Thumb Code    58  context_rvds.o(.text)
    rt_hw_interrupt_thread_switch            0x0800020d   Thumb Code     2  context_rvds.o(.text)
    HardFault_Handler                        0x0800020f   Thumb Code    48  context_rvds.o(.text)
    __aeabi_memcpy                           0x08000259   Thumb Code    36  memcpya.o(.text)
    __aeabi_memcpy4                          0x08000259   Thumb Code     0  memcpya.o(.text)
    __aeabi_memcpy8                          0x08000259   Thumb Code     0  memcpya.o(.text)
    __aeabi_memset                           0x0800027d   Thumb Code    14  memseta.o(.text)
    __aeabi_memset4                          0x0800027d   Thumb Code     0  memseta.o(.text)
    __aeabi_memset8                          0x0800027d   Thumb Code     0  memseta.o(.text)
    __aeabi_memclr                           0x0800028b   Thumb Code     4  memseta.o(.text)
    __aeabi_memclr4                          0x0800028b   Thumb Code     0  memseta.o(.text)
    __aeabi_memclr8                          0x0800028b   Thumb Code     0  memseta.o(.text)
    _memset$wrapper                          0x0800028f   Thumb Code    18  memseta.o(.text)
    strstr                                   0x080002a1   Thumb Code    36  strstr.o(.text)
    strlen                                   0x080002c5   Thumb Code    14  strlen.o(.text)
    strcmp                                   0x080002d3   Thumb Code    28  strcmp.o(.text)
    __0sscanf                                0x080002f1   Thumb Code    48  __0sscanf.o(.text)
    _scanf_string                            0x08000329   Thumb Code   224  _scanf_str.o(.text)
    __aeabi_fadd                             0x08000409   Thumb Code   164  fadd.o(.text)
    __aeabi_fsub                             0x080004ad   Thumb Code     6  fadd.o(.text)
    __aeabi_frsub                            0x080004b3   Thumb Code     6  fadd.o(.text)
    __aeabi_fmul                             0x080004b9   Thumb Code   100  fmul.o(.text)
    __aeabi_fdiv                             0x0800051d   Thumb Code   124  fdiv.o(.text)
    __aeabi_dadd                             0x08000599   Thumb Code   322  dadd.o(.text)
    __aeabi_dsub                             0x080006db   Thumb Code     6  dadd.o(.text)
    __aeabi_drsub                            0x080006e1   Thumb Code     6  dadd.o(.text)
    __aeabi_dmul                             0x080006e7   Thumb Code   228  dmul.o(.text)
    __aeabi_ddiv                             0x080007cb   Thumb Code   222  ddiv.o(.text)
    __aeabi_i2f                              0x080008a9   Thumb Code    18  fflti.o(.text)
    __aeabi_ui2f                             0x080008bb   Thumb Code    10  ffltui.o(.text)
    __aeabi_f2iz                             0x080008c5   Thumb Code    50  ffixi.o(.text)
    __aeabi_d2iz                             0x080008f7   Thumb Code    62  dfixi.o(.text)
    __aeabi_f2d                              0x08000935   Thumb Code    38  f2d.o(.text)
    __aeabi_cdrcmple                         0x0800095d   Thumb Code    48  cdrcmple.o(.text)
    __aeabi_d2f                              0x0800098d   Thumb Code    56  d2f.o(.text)
    __aeabi_cfcmpeq                          0x080009c5   Thumb Code     0  cfcmple.o(.text)
    __aeabi_cfcmple                          0x080009c5   Thumb Code    20  cfcmple.o(.text)
    __aeabi_cfrcmple                         0x080009d9   Thumb Code    20  cfrcmple.o(.text)
    __aeabi_uidiv                            0x080009ed   Thumb Code     0  uidiv.o(.text)
    __aeabi_uidivmod                         0x080009ed   Thumb Code    44  uidiv.o(.text)
    __aeabi_uldivmod                         0x08000a19   Thumb Code    98  uldiv.o(.text)
    __aeabi_llsl                             0x08000a7b   Thumb Code    30  llshl.o(.text)
    _ll_shift_l                              0x08000a7b   Thumb Code     0  llshl.o(.text)
    __aeabi_llsr                             0x08000a99   Thumb Code    32  llushr.o(.text)
    _ll_ushift_r                             0x08000a99   Thumb Code     0  llushr.o(.text)
    __aeabi_lasr                             0x08000ab9   Thumb Code    36  llsshr.o(.text)
    _ll_sshift_r                             0x08000ab9   Thumb Code     0  llsshr.o(.text)
    __vfscanf_char                           0x08000ae9   Thumb Code    20  scanf_char.o(.text)
    _sgetc                                   0x08000b05   Thumb Code    30  _sgetc.o(.text)
    _sbackspace                              0x08000b23   Thumb Code    34  _sgetc.o(.text)
    __I$use$fp                               0x08000b45   Thumb Code     0  iusefp.o(.text)
    _float_round                             0x08000b45   Thumb Code    18  fepilogue.o(.text)
    _float_epilogue                          0x08000b57   Thumb Code    92  fepilogue.o(.text)
    _double_round                            0x08000bb3   Thumb Code    30  depilogue.o(.text)
    _double_epilogue                         0x08000bd1   Thumb Code   156  depilogue.o(.text)
    __ARM_scalbn                             0x08000c6d   Thumb Code    46  dscalb.o(.text)
    scalbn                                   0x08000c6d   Thumb Code     0  dscalb.o(.text)
    __aeabi_i2d                              0x08000c9b   Thumb Code    34  dflti.o(.text)
    __aeabi_d2ulz                            0x08000cbd   Thumb Code    48  dfixul.o(.text)
    __scatterload                            0x08000ced   Thumb Code    28  init.o(.text)
    __scatterload_rt2                        0x08000ced   Thumb Code     0  init.o(.text)
    isspace                                  0x08000d11   Thumb Code    10  isspace_c.o(.text)
    __vfscanf                                0x08000d1d   Thumb Code   808  _scanf.o(.text)
    _dsqrt                                   0x08001049   Thumb Code   162  dsqrt.o(.text)
    __ctype_lookup                           0x080010ed   Thumb Code    34  ctype_c.o(.text)
    __decompress                             0x08001115   Thumb Code     0  __dczerorl2.o(.text)
    __decompress1                            0x08001115   Thumb Code    86  __dczerorl2.o(.text)
    main                                     0x0800116b   Thumb Code    14  components.o(i.$Sub$$main)
    ADC_ClearFlag                            0x08001179   Thumb Code     6  stm32f10x_adc.o(i.ADC_ClearFlag)
    ADC_Cmd                                  0x0800117f   Thumb Code    22  stm32f10x_adc.o(i.ADC_Cmd)
    ADC_DeInit                               0x08001195   Thumb Code    78  stm32f10x_adc.o(i.ADC_DeInit)
    ADC_GetCalibrationStatus                 0x080011f1   Thumb Code    20  stm32f10x_adc.o(i.ADC_GetCalibrationStatus)
    ADC_GetConversionValue                   0x08001205   Thumb Code     8  stm32f10x_adc.o(i.ADC_GetConversionValue)
    ADC_GetFlagStatus                        0x0800120d   Thumb Code    18  stm32f10x_adc.o(i.ADC_GetFlagStatus)
    ADC_GetResetCalibrationStatus            0x0800121f   Thumb Code    20  stm32f10x_adc.o(i.ADC_GetResetCalibrationStatus)
    ADC_Init                                 0x08001235   Thumb Code    70  stm32f10x_adc.o(i.ADC_Init)
    ADC_RegularChannelConfig                 0x08001285   Thumb Code   184  stm32f10x_adc.o(i.ADC_RegularChannelConfig)
    ADC_ResetCalibration                     0x0800133d   Thumb Code    10  stm32f10x_adc.o(i.ADC_ResetCalibration)
    ADC_SoftwareStartConvCmd                 0x08001347   Thumb Code    22  stm32f10x_adc.o(i.ADC_SoftwareStartConvCmd)
    ADC_StartCalibration                     0x0800135d   Thumb Code    10  stm32f10x_adc.o(i.ADC_StartCalibration)
    BusFault_Handler                         0x08001367   Thumb Code     4  stm32f10x_it.o(i.BusFault_Handler)
    Calculate_SGP30                          0x0800136b   Thumb Code    38  deal_with.o(i.Calculate_SGP30)
    Calculate_SHT30                          0x08001391   Thumb Code   214  deal_with.o(i.Calculate_SHT30)
    Clear_Buffer                             0x08001485   Thumb Code    38  usart2.o(i.Clear_Buffer)
    Clear_Buffer_separate                    0x080014b5   Thumb Code    32  usart2.o(i.Clear_Buffer_separate)
    Collect_data                             0x080014dd   Thumb Code   100  gp2y10_adc.o(i.Collect_data)
    DataGet_LD2410C                          0x08001549   Thumb Code   154  hlk_ld2410c.o(i.DataGet_LD2410C)
    Dealwith_HLK_TX510                       0x080015ed   Thumb Code   176  hlk_tx510.o(i.Dealwith_HLK_TX510)
    DebugMon_Handler                         0x080016a5   Thumb Code     2  stm32f10x_it.o(i.DebugMon_Handler)
    EXTI0_IRQHandler                         0x080016a9   Thumb Code    22  stm32f10x_it.o(i.EXTI0_IRQHandler)
    EXTI15_10_IRQHandler                     0x080016c5   Thumb Code    26  stm32f10x_it.o(i.EXTI15_10_IRQHandler)
    EXTI_ClearITPendingBit                   0x080016e5   Thumb Code     6  stm32f10x_exti.o(i.EXTI_ClearITPendingBit)
    EXTI_GetITStatus                         0x080016f1   Thumb Code    34  stm32f10x_exti.o(i.EXTI_GetITStatus)
    EXTI_Init                                0x08001719   Thumb Code   142  stm32f10x_exti.o(i.EXTI_Init)
    EXTI_Key_Config                          0x080017ad   Thumb Code   140  key_exti.o(i.EXTI_Key_Config)
    Face_recognition_myself                  0x08001841   Thumb Code    82  deal_with.o(i.Face_recognition_myself)
    GENERAL_TIM_Init                         0x0800189d   Thumb Code    12  generaltim.o(i.GENERAL_TIM_Init)
    GP2Y_ADC_Init                            0x08001917   Thumb Code    12  gp2y10_adc.o(i.GP2Y_ADC_Init)
    GP2Y_Convert                             0x08001925   Thumb Code   148  gp2y10_adc.o(i.GP2Y_Convert)
    GP2Y_GetDate                             0x08001a25   Thumb Code    34  gp2y10_adc.o(i.GP2Y_GetDate)
    GP2Y_GetDens                             0x08001a51   Thumb Code    16  gp2y10_adc.o(i.GP2Y_GetDens)
    GPIO_EXTILineConfig                      0x08001ad9   Thumb Code    60  stm32f10x_gpio.o(i.GPIO_EXTILineConfig)
    GPIO_Init                                0x08001b19   Thumb Code   278  stm32f10x_gpio.o(i.GPIO_Init)
    GPIO_ReadInputDataBit                    0x08001c2f   Thumb Code    18  stm32f10x_gpio.o(i.GPIO_ReadInputDataBit)
    GPIO_ResetBits                           0x08001c41   Thumb Code     4  stm32f10x_gpio.o(i.GPIO_ResetBits)
    GPIO_SetBits                             0x08001c45   Thumb Code     4  stm32f10x_gpio.o(i.GPIO_SetBits)
    Get_MQ2_ADC                              0x08001c49   Thumb Code    46  mq2_adc.o(i.Get_MQ2_ADC)
    Get_MQ2_ADC_Average                      0x08001c7d   Thumb Code    46  mq2_adc.o(i.Get_MQ2_ADC_Average)
    Getting_Data_myself                      0x08001cad   Thumb Code    74  deal_with.o(i.Getting_Data_myself)
    HLK_TX510_ClearDate                      0x08001d01   Thumb Code    52  hlk_tx510.o(i.HLK_TX510_ClearDate)
    HLK_TX510_DeleteAll_FaceID               0x08001d41   Thumb Code    34  hlk_tx510.o(i.HLK_TX510_DeleteAll_FaceID)
    HLK_TX510_Enroll_FaceID                  0x08001d6d   Thumb Code    34  hlk_tx510.o(i.HLK_TX510_Enroll_FaceID)
    HLK_TX510_Identify_FaceID                0x08001d99   Thumb Code    34  hlk_tx510.o(i.HLK_TX510_Identify_FaceID)
    HLK_TX510_Receive_Byte                   0x08001dc5   Thumb Code   198  hlk_tx510.o(i.HLK_TX510_Receive_Byte)
    HLK_TX510_Send_DeleteAllCmd              0x08001e9d   Thumb Code    28  hlk_tx510.o(i.HLK_TX510_Send_DeleteAllCmd)
    HLK_TX510_Send_FaceCmd                   0x08001eb9   Thumb Code    28  hlk_tx510.o(i.HLK_TX510_Send_FaceCmd)
    IIC_ACK                                  0x08001ed5   Thumb Code    60  sht30.o(i.IIC_ACK)
    IIC_NACK                                 0x08001f19   Thumb Code    60  sht30.o(i.IIC_NACK)
    IIC_RcvByte                              0x08001f5d   Thumb Code    78  sht30.o(i.IIC_RcvByte)
    IIC_SendByte                             0x08001fb5   Thumb Code    88  sht30.o(i.IIC_SendByte)
    IIC_Start                                0x08002015   Thumb Code    46  sht30.o(i.IIC_Start)
    IIC_Start_oled                           0x0800204d   Thumb Code    36  oled.o(i.IIC_Start_oled)
    IIC_Stop                                 0x08002075   Thumb Code    52  sht30.o(i.IIC_Stop)
    IIC_Stop_oled                            0x080020b1   Thumb Code    28  oled.o(i.IIC_Stop_oled)
    IIC_Wait_Ack_oled                        0x080020d1   Thumb Code    20  oled.o(i.IIC_Wait_Ack_oled)
    IIC_wait_ACK                             0x080020e9   Thumb Code   120  sht30.o(i.IIC_wait_ACK)
    IWDG_Enable                              0x08002169   Thumb Code    10  stm32f10x_iwdg.o(i.IWDG_Enable)
    IWDG_Feed                                0x08002179   Thumb Code     8  wdg.o(i.IWDG_Feed)
    IWDG_Init                                0x08002181   Thumb Code    36  wdg.o(i.IWDG_Init)
    IWDG_ReloadCounter                       0x080021a5   Thumb Code    10  stm32f10x_iwdg.o(i.IWDG_ReloadCounter)
    IWDG_SetPrescaler                        0x080021b5   Thumb Code     6  stm32f10x_iwdg.o(i.IWDG_SetPrescaler)
    IWDG_SetReload                           0x080021c1   Thumb Code     6  stm32f10x_iwdg.o(i.IWDG_SetReload)
    IWDG_WriteAccessCmd                      0x080021cd   Thumb Code     6  stm32f10x_iwdg.o(i.IWDG_WriteAccessCmd)
    Init_myself                              0x080021d9   Thumb Code   120  deal_with.o(i.Init_myself)
    LED_GPIO_Config                          0x08002255   Thumb Code    90  led_test.o(i.LED_GPIO_Config)
    ML302_Init                               0x080022b5   Thumb Code   106  ml302.o(i.ML302_Init)
    ML302_Init_MQTT                          0x08002361   Thumb Code   336  ml302.o(i.ML302_Init_MQTT)
    ML302_Init_call                          0x0800257d   Thumb Code   306  ml302.o(i.ML302_Init_call)
    ML302_Init_text                          0x08002745   Thumb Code   346  ml302.o(i.ML302_Init_text)
    ML302_MQTTInit                           0x08002979   Thumb Code   110  ml302.o(i.ML302_MQTTInit)
    ML302_MQTTPUBMessage_STM32               0x08002a91   Thumb Code   168  ml302.o(i.ML302_MQTTPUBMessage_STM32)
    ML302_MQTTPUBMessage_WeChat              0x08002b55   Thumb Code   118  ml302.o(i.ML302_MQTTPUBMessage_WeChat)
    ML302_MQTTSUB                            0x08002be9   Thumb Code    74  ml302.o(i.ML302_MQTTSUB)
    ML302_MQTT_RECData                       0x08002c9d   Thumb Code  1780  ml302.o(i.ML302_MQTT_RECData)
    MQ2_ADC_Init                             0x080033a5   Thumb Code   138  mq2_adc.o(i.MQ2_ADC_Init)
    MQ2_GetPPM                               0x08003439   Thumb Code   226  mq2_adc.o(i.MQ2_GetPPM)
    MemManage_Handler                        0x0800354d   Thumb Code     4  stm32f10x_it.o(i.MemManage_Handler)
    NMI_Handler                              0x08003551   Thumb Code     2  stm32f10x_it.o(i.NMI_Handler)
    NVIC_Init                                0x080035ad   Thumb Code   100  misc.o(i.NVIC_Init)
    NVIC_PriorityGroupConfig                 0x0800361d   Thumb Code    10  misc.o(i.NVIC_PriorityGroupConfig)
    OLED_Clear                               0x08003631   Thumb Code    62  oled.o(i.OLED_Clear)
    OLED_Init                                0x08003671   Thumb Code   270  oled.o(i.OLED_Init)
    OLED_Set_Pos                             0x08003785   Thumb Code    40  oled.o(i.OLED_Set_Pos)
    OLED_ShowChar                            0x080037ad   Thumb Code   154  oled.o(i.OLED_ShowChar)
    OLED_ShowNum                             0x08003851   Thumb Code   136  oled.o(i.OLED_ShowNum)
    OLED_ShowString                          0x080038d9   Thumb Code    58  oled.o(i.OLED_ShowString)
    OLED_Showdecimal                         0x08003913   Thumb Code   288  oled.o(i.OLED_Showdecimal)
    OLED_WR_Byte                             0x08003a33   Thumb Code    24  oled.o(i.OLED_WR_Byte)
    OSD_myself                               0x08003a4d   Thumb Code   136  deal_with.o(i.OSD_myself)
    RCC_ADCCLKConfig                         0x08003ad9   Thumb Code    18  stm32f10x_rcc.o(i.RCC_ADCCLKConfig)
    RCC_APB1PeriphClockCmd                   0x08003af1   Thumb Code    26  stm32f10x_rcc.o(i.RCC_APB1PeriphClockCmd)
    RCC_APB1PeriphResetCmd                   0x08003b11   Thumb Code    26  stm32f10x_rcc.o(i.RCC_APB1PeriphResetCmd)
    RCC_APB2PeriphClockCmd                   0x08003b31   Thumb Code    26  stm32f10x_rcc.o(i.RCC_APB2PeriphClockCmd)
    RCC_APB2PeriphResetCmd                   0x08003b51   Thumb Code    26  stm32f10x_rcc.o(i.RCC_APB2PeriphResetCmd)
    RCC_GetClocksFreq                        0x08003b71   Thumb Code   192  stm32f10x_rcc.o(i.RCC_GetClocksFreq)
    SDA_IN                                   0x08003c45   Thumb Code    30  sgp30.o(i.SDA_IN)
    SDA_OUT                                  0x08003c69   Thumb Code    30  sgp30.o(i.SDA_OUT)
    SGP30_GPIO_Init                          0x08003c8d   Thumb Code    52  sgp30.o(i.SGP30_GPIO_Init)
    SGP30_IIC_Ack                            0x08003cc5   Thumb Code    48  sgp30.o(i.SGP30_IIC_Ack)
    SGP30_IIC_NAck                           0x08003cfd   Thumb Code    48  sgp30.o(i.SGP30_IIC_NAck)
    SGP30_IIC_Read_Byte                      0x08003d35   Thumb Code    86  sgp30.o(i.SGP30_IIC_Read_Byte)
    SGP30_IIC_Send_Byte                      0x08003d99   Thumb Code    92  sgp30.o(i.SGP30_IIC_Send_Byte)
    SGP30_IIC_Start                          0x08003dfd   Thumb Code    46  sgp30.o(i.SGP30_IIC_Start)
    SGP30_IIC_Stop                           0x08003e35   Thumb Code    44  sgp30.o(i.SGP30_IIC_Stop)
    SGP30_IIC_Wait_Ack                       0x08003e69   Thumb Code    74  sgp30.o(i.SGP30_IIC_Wait_Ack)
    SGP30_Init                               0x08003ec1   Thumb Code    16  sgp30.o(i.SGP30_Init)
    SGP30_Read                               0x08003ed1   Thumb Code    72  sgp30.o(i.SGP30_Read)
    SGP30_Write                              0x08003f19   Thumb Code    52  sgp30.o(i.SGP30_Write)
    SHT30_In                                 0x08003f4d   Thumb Code    30  sht30.o(i.SHT30_In)
    SHT30_Init                               0x08003f71   Thumb Code    50  sht30.o(i.SHT30_Init)
    SHT30_Out                                0x08003fb1   Thumb Code    30  sht30.o(i.SHT30_Out)
    SHT30_read_result                        0x08003fd5   Thumb Code   186  sht30.o(i.SHT30_read_result)
    SVC_Handler                              0x0800408f   Thumb Code     2  stm32f10x_it.o(i.SVC_Handler)
    SysTick_CLKSourceConfig                  0x08004179   Thumb Code    40  misc.o(i.SysTick_CLKSourceConfig)
    SysTick_Handler                          0x080041a1   Thumb Code    16  board.o(i.SysTick_Handler)
    SystemInit                               0x080041b1   Thumb Code    78  system_stm32f10x.o(i.SystemInit)
    TIM2_IRQHandler                          0x08004211   Thumb Code   162  stm32f10x_it.o(i.TIM2_IRQHandler)
    TIM7_IRQHandler                          0x080042c5   Thumb Code    32  timer_mq2.o(i.TIM7_IRQHandler)
    TIM7_Init                                0x080042ed   Thumb Code    92  timer_mq2.o(i.TIM7_Init)
    TIM_ClearFlag                            0x0800434d   Thumb Code     6  stm32f10x_tim.o(i.TIM_ClearFlag)
    TIM_ClearITPendingBit                    0x08004353   Thumb Code     6  stm32f10x_tim.o(i.TIM_ClearITPendingBit)
    TIM_Cmd                                  0x08004359   Thumb Code    24  stm32f10x_tim.o(i.TIM_Cmd)
    TIM_GetITStatus                          0x08004371   Thumb Code    34  stm32f10x_tim.o(i.TIM_GetITStatus)
    TIM_ITConfig                             0x08004393   Thumb Code    18  stm32f10x_tim.o(i.TIM_ITConfig)
    TIM_TimeBaseInit                         0x080043a5   Thumb Code   122  stm32f10x_tim.o(i.TIM_TimeBaseInit)
    UART4_IRQHandler                         0x08004449   Thumb Code   182  uart4.o(i.UART4_IRQHandler)
    UART5_Config                             0x08004511   Thumb Code   132  uart5.o(i.UART5_Config)
    UART5_IRQHandler                         0x080045a1   Thumb Code    64  uart5.o(i.UART5_IRQHandler)
    USART1_IRQHandler                        0x080045e9   Thumb Code   130  usart.o(i.USART1_IRQHandler)
    USART2_IRQHandler                        0x08004679   Thumb Code    54  usart2.o(i.USART2_IRQHandler)
    USART3_IRQHandler                        0x0800474d   Thumb Code    74  usart3.o(i.USART3_IRQHandler)
    USART3_Init                              0x080047a1   Thumb Code    24  usart3.o(i.USART3_Init)
    USART3_SendByte                          0x080047f5   Thumb Code    28  usart3.o(i.USART3_SendByte)
    USART_Cmd                                0x08004815   Thumb Code    24  stm32f10x_usart.o(i.USART_Cmd)
    USART_DeInit                             0x0800482d   Thumb Code   134  stm32f10x_usart.o(i.USART_DeInit)
    USART_GetFlagStatus                      0x080048c9   Thumb Code    26  stm32f10x_usart.o(i.USART_GetFlagStatus)
    USART_GetITStatus                        0x080048e3   Thumb Code    84  stm32f10x_usart.o(i.USART_GetITStatus)
    USART_ITConfig                           0x08004937   Thumb Code    74  stm32f10x_usart.o(i.USART_ITConfig)
    USART_Init                               0x08004981   Thumb Code   210  stm32f10x_usart.o(i.USART_Init)
    USART_ReceiveData                        0x08004a59   Thumb Code    10  stm32f10x_usart.o(i.USART_ReceiveData)
    USART_SendData                           0x08004a63   Thumb Code     8  stm32f10x_usart.o(i.USART_SendData)
    Uart1_SendStr                            0x08004a6d   Thumb Code    34  usart.o(i.Uart1_SendStr)
    Upload_Receive_Data_STM32                0x08004a95   Thumb Code    88  deal_with.o(i.Upload_Receive_Data_STM32)
    Upload_Receive_Data_wechat               0x08004af1   Thumb Code    96  deal_with.o(i.Upload_Receive_Data_wechat)
    UsageFault_Handler                       0x08004b55   Thumb Code     4  stm32f10x_it.o(i.UsageFault_Handler)
    Write_IIC_Byte                           0x08004b59   Thumb Code    80  oled.o(i.Write_IIC_Byte)
    Write_IIC_Command                        0x08004bad   Thumb Code    44  oled.o(i.Write_IIC_Command)
    Write_IIC_Data                           0x08004bd9   Thumb Code    44  oled.o(i.Write_IIC_Data)
    __0printf                                0x08004c05   Thumb Code    22  printfa.o(i.__0printf)
    __1printf                                0x08004c05   Thumb Code     0  printfa.o(i.__0printf)
    __2printf                                0x08004c05   Thumb Code     0  printfa.o(i.__0printf)
    __c89printf                              0x08004c05   Thumb Code     0  printfa.o(i.__0printf)
    printf                                   0x08004c05   Thumb Code     0  printfa.o(i.__0printf)
    __0vsnprintf                             0x08004c25   Thumb Code    40  printfa.o(i.__0vsnprintf)
    __1vsnprintf                             0x08004c25   Thumb Code     0  printfa.o(i.__0vsnprintf)
    __2vsnprintf                             0x08004c25   Thumb Code     0  printfa.o(i.__0vsnprintf)
    __c89vsnprintf                           0x08004c25   Thumb Code     0  printfa.o(i.__0vsnprintf)
    vsnprintf                                0x08004c25   Thumb Code     0  printfa.o(i.__0vsnprintf)
    __ARM_fpclassify                         0x08004c51   Thumb Code    40  fpclassify.o(i.__ARM_fpclassify)
    __kernel_poly                            0x08004c79   Thumb Code   170  poly.o(i.__kernel_poly)
    __mathlib_dbl_divzero                    0x08004d25   Thumb Code    12  dunder.o(i.__mathlib_dbl_divzero)
    __mathlib_dbl_infnan2                    0x08004d35   Thumb Code     4  dunder.o(i.__mathlib_dbl_infnan2)
    __mathlib_dbl_invalid                    0x08004d39   Thumb Code    12  dunder.o(i.__mathlib_dbl_invalid)
    __mathlib_dbl_overflow                   0x08004d45   Thumb Code    14  dunder.o(i.__mathlib_dbl_overflow)
    __mathlib_dbl_underflow                  0x08004d55   Thumb Code    10  dunder.o(i.__mathlib_dbl_underflow)
    __rt_ffs                                 0x08004d65   Thumb Code    70  kservice.o(i.__rt_ffs)
    __scatterload_copy                       0x08004db1   Thumb Code    14  handlers.o(i.__scatterload_copy)
    __scatterload_null                       0x08004dbf   Thumb Code     2  handlers.o(i.__scatterload_null)
    __scatterload_zeroinit                   0x08004dc1   Thumb Code    14  handlers.o(i.__scatterload_zeroinit)
    __set_errno                              0x08004dd1   Thumb Code     6  errno.o(i.__set_errno)
    deal_with                                0x080057dd   Thumb Code    80  deal_with.o(i.deal_with)
    delay_init                               0x08005839   Thumb Code    76  delay.o(i.delay_init)
    delay_ms                                 0x0800588d   Thumb Code    66  delay.o(i.delay_ms)
    delay_osschedlock                        0x080058dd   Thumb Code     8  delay.o(i.delay_osschedlock)
    delay_osschedunlock                      0x080058e5   Thumb Code     8  delay.o(i.delay_osschedunlock)
    delay_ostimedly                          0x080058ed   Thumb Code    12  delay.o(i.delay_ostimedly)
    delay_s                                  0x080058f9   Thumb Code    24  delay.o(i.delay_s)
    delay_us                                 0x08005911   Thumb Code    84  delay.o(i.delay_us)
    fputc                                    0x08005969   Thumb Code    24  usart2.o(i.fputc)
    $Super$$main                             0x08005985   Thumb Code   198  main.o(i.main)
    main_thread_entry                        0x08005ad9   Thumb Code    14  components.o(i.main_thread_entry)
    oled_pow                                 0x08005ae7   Thumb Code    22  oled.o(i.oled_pow)
    perform_DeleteAllFace                    0x08005afd   Thumb Code    32  hlk_tx510.o(i.perform_DeleteAllFace)
    perform_DeleteFace                       0x08005b21   Thumb Code    32  hlk_tx510.o(i.perform_DeleteFace)
    perform_EnrollFace                       0x08005b45   Thumb Code    32  hlk_tx510.o(i.perform_EnrollFace)
    perform_IdentifyFace                     0x08005b69   Thumb Code    32  hlk_tx510.o(i.perform_IdentifyFace)
    pow                                      0x08005c05   Thumb Code  2512  pow.o(i.pow)
    printf_myself                            0x080065dd   Thumb Code   116  deal_with.o(i.printf_myself)
    rt_application_init                      0x08006709   Thumb Code    32  components.o(i.rt_application_init)
    rt_components_board_init                 0x08006735   Thumb Code    20  components.o(i.rt_components_board_init)
    rt_components_init                       0x08006751   Thumb Code    20  components.o(i.rt_components_init)
    rt_enter_critical                        0x0800676d   Thumb Code    28  scheduler.o(i.rt_enter_critical)
    rt_exit_critical                         0x0800678d   Thumb Code    54  scheduler.o(i.rt_exit_critical)
    rt_free                                  0x080067c9   Thumb Code   128  mem.o(i.rt_free)
    rt_heap_begin_get                        0x080068a9   Thumb Code     4  board.o(i.rt_heap_begin_get)
    rt_heap_end_get                          0x080068b1   Thumb Code     4  board.o(i.rt_heap_end_get)
    rt_hw_board_init                         0x080068b9   Thumb Code   110  board.o(i.rt_hw_board_init)
    rt_hw_console_output                     0x08006935   Thumb Code    74  board.o(i.rt_hw_console_output)
    rt_hw_hard_fault_exception               0x08006985   Thumb Code   190  cpuport.o(i.rt_hw_hard_fault_exception)
    rt_hw_stack_init                         0x08006b85   Thumb Code    70  cpuport.o(i.rt_hw_stack_init)
    rt_interrupt_enter                       0x08006bd1   Thumb Code    26  irq.o(i.rt_interrupt_enter)
    rt_interrupt_leave                       0x08006bf1   Thumb Code    26  irq.o(i.rt_interrupt_leave)
    rt_kprintf                               0x08006ca1   Thumb Code    44  kservice.o(i.rt_kprintf)
    rt_malloc                                0x08006d61   Thumb Code   336  mem.o(i.rt_malloc)
    rt_memset                                0x08006ecd   Thumb Code    20  kservice.o(i.rt_memset)
    rt_object_allocate                       0x08006ee1   Thumb Code    74  object.o(i.rt_object_allocate)
    rt_object_delete                         0x08006f2b   Thumb Code    32  object.o(i.rt_object_delete)
    rt_object_detach                         0x08006f4b   Thumb Code    26  object.o(i.rt_object_detach)
    rt_object_get_information                0x08006f65   Thumb Code    36  object.o(i.rt_object_get_information)
    rt_object_init                           0x08006f8d   Thumb Code    60  object.o(i.rt_object_init)
    rt_object_is_systemobject                0x08006fc9   Thumb Code    18  object.o(i.rt_object_is_systemobject)
    rt_schedule                              0x08006fdd   Thumb Code   118  scheduler.o(i.rt_schedule)
    rt_schedule_insert_thread                0x0800706d   Thumb Code    72  scheduler.o(i.rt_schedule_insert_thread)
    rt_schedule_remove_thread                0x080070bd   Thumb Code    76  scheduler.o(i.rt_schedule_remove_thread)
    rt_sem_create                            0x08007111   Thumb Code    42  ipc.o(i.rt_sem_create)
    rt_sem_init                              0x0800713b   Thumb Code    38  ipc.o(i.rt_sem_init)
    rt_sem_release                           0x08007161   Thumb Code    58  ipc.o(i.rt_sem_release)
    rt_sem_take                              0x0800719b   Thumb Code   116  ipc.o(i.rt_sem_take)
    rt_show_version                          0x08007211   Thumb Code    38  kservice.o(i.rt_show_version)
    rt_strncpy                               0x080072c1   Thumb Code    52  kservice.o(i.rt_strncpy)
    rt_system_heap_init                      0x080072f5   Thumb Code   160  mem.o(i.rt_system_heap_init)
    rt_system_scheduler_init                 0x080073ed   Thumb Code    52  scheduler.o(i.rt_system_scheduler_init)
    rt_system_scheduler_start                0x08007439   Thumb Code    36  scheduler.o(i.rt_system_scheduler_start)
    rt_system_timer_init                     0x08007469   Thumb Code    24  timer.o(i.rt_system_timer_init)
    rt_system_timer_thread_init              0x08007485   Thumb Code     2  timer.o(i.rt_system_timer_thread_init)
    rt_thread_create                         0x08007487   Thumb Code    80  thread.o(i.rt_thread_create)
    rt_thread_delay                          0x080074d7   Thumb Code    12  thread.o(i.rt_thread_delay)
    rt_thread_exit                           0x080074e5   Thumb Code    76  thread.o(i.rt_thread_exit)
    rt_thread_idle_excute                    0x08007541   Thumb Code   128  idle.o(i.rt_thread_idle_excute)
    rt_thread_idle_init                      0x080075c5   Thumb Code    38  idle.o(i.rt_thread_idle_init)
    rt_thread_init                           0x08007601   Thumb Code    52  thread.o(i.rt_thread_init)
    rt_thread_resume                         0x08007635   Thumb Code    60  thread.o(i.rt_thread_resume)
    rt_thread_self                           0x08007671   Thumb Code     6  thread.o(i.rt_thread_self)
    rt_thread_sleep                          0x0800767d   Thumb Code    62  thread.o(i.rt_thread_sleep)
    rt_thread_startup                        0x080076c1   Thumb Code    44  thread.o(i.rt_thread_startup)
    rt_thread_suspend                        0x080076ed   Thumb Code    68  thread.o(i.rt_thread_suspend)
    rt_thread_timeout                        0x08007731   Thumb Code    32  thread.o(i.rt_thread_timeout)
    rt_thread_yield                          0x08007751   Thumb Code    92  thread.o(i.rt_thread_yield)
    rt_tick_get                              0x080077b5   Thumb Code     6  clock.o(i.rt_tick_get)
    rt_tick_increase                         0x080077c1   Thumb Code    42  clock.o(i.rt_tick_increase)
    rt_timer_check                           0x080077f1   Thumb Code   118  timer.o(i.rt_timer_check)
    rt_timer_control                         0x0800786d   Thumb Code    56  timer.o(i.rt_timer_control)
    rt_timer_detach                          0x080078a5   Thumb Code    32  timer.o(i.rt_timer_detach)
    rt_timer_init                            0x080078c5   Thumb Code    46  timer.o(i.rt_timer_init)
    rt_timer_start                           0x080078f5   Thumb Code   238  timer.o(i.rt_timer_start)
    rt_timer_stop                            0x080079ed   Thumb Code    48  timer.o(i.rt_timer_stop)
    rtthread_startup                         0x08007a2d   Thumb Code    42  components.o(i.rtthread_startup)
    sqrt                                     0x08007a7d   Thumb Code    76  sqrt.o(i.sqrt)
    uart2_init                               0x08007ac9   Thumb Code   160  usart2.o(i.uart2_init)
    uart4_init                               0x08007b71   Thumb Code   174  uart4.o(i.uart4_init)
    uart_init                                0x08007c31   Thumb Code   152  usart.o(i.uart_init)
    __lowest_bit_bitmap                      0x08007cd0   Data         256  kservice.o(.constdata)
    F6x8                                     0x08007df2   Data         552  oled.o(.constdata)
    F8X16                                    0x0800801a   Data        1520  oled.o(.constdata)
    __mathlib_zero                           0x08008698   Data           8  qnan.o(.constdata)
    __ctype_categories                       0x080086a0   Data          64  ctype_c.o(.constdata)
    __rt_init_rti_start                      0x08008be4   Data           4  components.o(.rti_fn.0)
    __rt_init_rti_board_start                0x08008be8   Data           4  components.o(.rti_fn.0.end)
    __rt_init_rti_board_end                  0x08008bec   Data           4  components.o(.rti_fn.1.end)
    __rt_init_rti_end                        0x08008bf0   Data           4  components.o(.rti_fn.6.end)
    Region$$Table$$Base                      0x08008bf4   Number         0  anon$$obj.o(Region$$Table)
    Region$$Table$$Limit                     0x08008c14   Number         0  anon$$obj.o(Region$$Table)
    SystemCoreClock                          0x20000000   Data           4  system_stm32f10x.o(.data)
    AHBPrescTable                            0x20000004   Data          16  system_stm32f10x.o(.data)
    communication_sem                        0x20000034   Data           4  main.o(.data)
    recognition_sem                          0x20000038   Data           4  main.o(.data)
    sensor_sem                               0x2000003c   Data           4  main.o(.data)
    STM32                                    0x20000040   Data          40  deal_with.o(.data)
    WeChat                                   0x20000068   Data          48  deal_with.o(.data)
    WeChat_cache                             0x20000098   Data          48  deal_with.o(.data)
    SENSOR                                   0x200000c8   Data          40  deal_with.o(.data)
    NVICPriority_Structure                   0x200000f0   Data           7  deal_with.o(.data)
    KEY1_flag                                0x200000f7   Data           1  deal_with.o(.data)
    KEY2_flag                                0x200000f8   Data           1  deal_with.o(.data)
    rt_interrupt_nest                        0x20000100   Data           1  irq.o(.data)
    rt_current_thread                        0x200001a0   Data           4  scheduler.o(.data)
    rt_current_priority                      0x200001a4   Data           1  scheduler.o(.data)
    rt_thread_ready_priority_group           0x200001a8   Data           4  scheduler.o(.data)
    rt_thread_defunct                        0x200001ac   Data           8  scheduler.o(.data)
    rt_interrupt_from_thread                 0x200001c0   Data           4  cpuport.o(.data)
    rt_interrupt_to_thread                   0x200001c4   Data           4  cpuport.o(.data)
    rt_thread_switch_interrupt_flag          0x200001c8   Data           4  cpuport.o(.data)
    OSRunning                                0x200001d4   Data           1  delay.o(.data)
    USART_RX_STA                             0x200001d6   Data           2  usart.o(.data)
    HLK_TX510_Face_IdentifyCmd               0x200001d9   Data           8  hlk_tx510.o(.data)
    HLK_TX510_Face_EnrollCmd                 0x200001e1   Data           8  hlk_tx510.o(.data)
    HLK_TX510_Delete_FaceCmd                 0x200001e9   Data          10  hlk_tx510.o(.data)
    HLK_TX510_Delete_FaceALLCmd              0x200001f3   Data           8  hlk_tx510.o(.data)
    HLK_TX510_LightON                        0x200001fb   Data           9  hlk_tx510.o(.data)
    HLK_TX510_LightOFF                       0x20000204   Data           9  hlk_tx510.o(.data)
    HLK_TX510_Control_DisplayON              0x2000020d   Data           9  hlk_tx510.o(.data)
    HLK_TX510_Control_DisplayOFF             0x20000216   Data           9  hlk_tx510.o(.data)
    HLK_TX510_WhiteLightON                   0x2000021f   Data           9  hlk_tx510.o(.data)
    HLK_TX510_WhiteLightOFF                  0x20000228   Data           9  hlk_tx510.o(.data)
    HLK_TX510_Version_InquireCmd             0x20000231   Data           8  hlk_tx510.o(.data)
    HLK_TX510_RebootCmd                      0x20000239   Data           8  hlk_tx510.o(.data)
    HLK_TX510_Baudrate_SetCmd                0x20000241   Data           9  hlk_tx510.o(.data)
    HLK_TX510_Read_Face_QuantityCmd          0x2000024a   Data           8  hlk_tx510.o(.data)
    HLK_TX510                                0x20000252   Data           8  hlk_tx510.o(.data)
    flag_start_TX510                         0x2000025a   Data           1  hlk_tx510.o(.data)
    flag_stop_TX510                          0x2000025b   Data           1  hlk_tx510.o(.data)
    i                                        0x2000025c   Data           1  hlk_tx510.o(.data)
    strx_MQTT                                0x20000260   Data           4  ml302.o(.data)
    extstrx_MQTT                             0x20000264   Data           4  ml302.o(.data)
    strx_call                                0x20000268   Data           4  ml302.o(.data)
    extstrx_call                             0x2000026c   Data           4  ml302.o(.data)
    strx_text                                0x20000270   Data           4  ml302.o(.data)
    extstrx_text                             0x20000274   Data           4  ml302.o(.data)
    strx_LBS                                 0x20000278   Data           4  ml302.o(.data)
    extstrx_LBS                              0x2000027c   Data           4  ml302.o(.data)
    socketnum                                0x20000280   Data           1  ml302.o(.data)
    strx_MQTTSUB                             0x20000284   Data           4  ml302.o(.data)
    strx_MQTT_REC                            0x20000288   Data           4  ml302.o(.data)
    strx_MQTT_REC_cache                      0x2000028c   Data           4  ml302.o(.data)
    time_rec                                 0x20000290   Data           4  ml302.o(.data)
    MQTT_REC_datastreams                     0x20000294   Data           4  ml302.o(.data)
    id_rec_cache                             0x20000298   Data           4  ml302.o(.data)
    data_rec_cache                           0x2000029c   Data           4  ml302.o(.data)
    id_rec                                   0x200002a0   Data           6  ml302.o(.data)
    i_rec                                    0x200002a6   Data           1  ml302.o(.data)
    k_rec                                    0x200002a7   Data           1  ml302.o(.data)
    i_switch                                 0x200002a8   Data           1  ml302.o(.data)
    times_MQ2                                0x200002b0   Data           4  mq2_adc.o(.data)
    flag_start_LD2410C                       0x200002b4   Data           1  uart4.o(.data)
    __stdout                                 0x200002b8   Data           4  usart2.o(.data)
    RxCounter                                0x200002bc   Data           2  usart2.o(.data)
    rt_thread_priority_table                 0x200014e4   Data          64  scheduler.o(.bss)
    USART_RX_BUF                             0x20001524   Data         200  usart.o(.bss)
    RX_Data_LD2410C                          0x20001614   Data         304  hlk_ld2410c.o(.bss)
    Receive_Data_LD2410C                     0x20001744   Data        1026  hlk_ld2410c.o(.bss)
    Detection_Target_LD2410C                 0x20001b46   Data          10  hlk_ld2410c.o(.bss)
    RX_Data_TX510                            0x20001b50   Data          54  hlk_tx510.o(.bss)
    Receive_Data_TX510                       0x20001b86   Data          54  hlk_tx510.o(.bss)
    judge_rec                                0x20001bbc   Data          10  ml302.o(.bss)
    data_rec                                 0x20001bc6   Data          12  ml302.o(.bss)
    UART4_TX_BUF                             0x20001bd8   Data         600  uart4.o(.bss)
    UART4_RX_BUF                             0x20001e30   Data        1024  uart4.o(.bss)
    USART_InitStructure                      0x20002230   Data          16  uart4.o(.bss)
    RxBuffer                                 0x20002240   Data         185  usart2.o(.bss)
    __initial_sp                             0x20002700   Data           0  startup_stm32f10x_hd.o(STACK)
    mem2base                                 0x68000000   Data       983040  malloc.o(.ARM.__AT_0x68000000)
    mem2mapbase                              0x680f0000   Data       61440  malloc.o(.ARM.__AT_0x680F0000)



==============================================================================

Memory Map of the image

  Image Entry point : 0x08000131

  Load Region LR_IROM1 (Base: 0x08000000, Size: 0x00008ed8, Max: 0x00080000, ABSOLUTE, COMPRESSED[0x00008cd4])

    Execution Region ER_IROM1 (Exec base: 0x08000000, Load base: 0x08000000, Size: 0x00008c14, Max: 0x00080000, ABSOLUTE)

    Exec Addr    Load Addr    Size         Type   Attr      Idx    E Section Name        Object

    0x08000000   0x08000000   0x00000130   Data   RO            3    RESET               startup_stm32f10x_hd.o
    0x08000130   0x08000130   0x00000000   Code   RO         6009  * .ARM.Collect$$$$00000000  mc_w.l(entry.o)
    0x08000130   0x08000130   0x00000004   Code   RO         6348    .ARM.Collect$$$$00000001  mc_w.l(entry2.o)
    0x08000134   0x08000134   0x00000004   Code   RO         6351    .ARM.Collect$$$$00000004  mc_w.l(entry5.o)
    0x08000138   0x08000138   0x00000000   Code   RO         6353    .ARM.Collect$$$$00000008  mc_w.l(entry7b.o)
    0x08000138   0x08000138   0x00000000   Code   RO         6355    .ARM.Collect$$$$0000000A  mc_w.l(entry8b.o)
    0x08000138   0x08000138   0x00000008   Code   RO         6356    .ARM.Collect$$$$0000000B  mc_w.l(entry9a.o)
    0x08000140   0x08000140   0x00000000   Code   RO         6358    .ARM.Collect$$$$0000000D  mc_w.l(entry10a.o)
    0x08000140   0x08000140   0x00000000   Code   RO         6360    .ARM.Collect$$$$0000000F  mc_w.l(entry11a.o)
    0x08000140   0x08000140   0x00000004   Code   RO         6349    .ARM.Collect$$$$00002712  mc_w.l(entry2.o)
    0x08000144   0x08000144   0x00000024   Code   RO            4    .text               startup_stm32f10x_hd.o
    0x08000168   0x08000168   0x000000f0   Code   RO         5009    .text               context_rvds.o
    0x08000258   0x08000258   0x00000024   Code   RO         6012    .text               mc_w.l(memcpya.o)
    0x0800027c   0x0800027c   0x00000024   Code   RO         6014    .text               mc_w.l(memseta.o)
    0x080002a0   0x080002a0   0x00000024   Code   RO         6016    .text               mc_w.l(strstr.o)
    0x080002c4   0x080002c4   0x0000000e   Code   RO         6018    .text               mc_w.l(strlen.o)
    0x080002d2   0x080002d2   0x0000001c   Code   RO         6020    .text               mc_w.l(strcmp.o)
    0x080002ee   0x080002ee   0x00000002   PAD
    0x080002f0   0x080002f0   0x00000038   Code   RO         6285    .text               mc_w.l(__0sscanf.o)
    0x08000328   0x08000328   0x000000e0   Code   RO         6287    .text               mc_w.l(_scanf_str.o)
    0x08000408   0x08000408   0x000000b0   Code   RO         6289    .text               mf_w.l(fadd.o)
    0x080004b8   0x080004b8   0x00000064   Code   RO         6291    .text               mf_w.l(fmul.o)
    0x0800051c   0x0800051c   0x0000007c   Code   RO         6293    .text               mf_w.l(fdiv.o)
    0x08000598   0x08000598   0x0000014e   Code   RO         6295    .text               mf_w.l(dadd.o)
    0x080006e6   0x080006e6   0x000000e4   Code   RO         6297    .text               mf_w.l(dmul.o)
    0x080007ca   0x080007ca   0x000000de   Code   RO         6299    .text               mf_w.l(ddiv.o)
    0x080008a8   0x080008a8   0x00000012   Code   RO         6301    .text               mf_w.l(fflti.o)
    0x080008ba   0x080008ba   0x0000000a   Code   RO         6303    .text               mf_w.l(ffltui.o)
    0x080008c4   0x080008c4   0x00000032   Code   RO         6305    .text               mf_w.l(ffixi.o)
    0x080008f6   0x080008f6   0x0000003e   Code   RO         6307    .text               mf_w.l(dfixi.o)
    0x08000934   0x08000934   0x00000026   Code   RO         6309    .text               mf_w.l(f2d.o)
    0x0800095a   0x0800095a   0x00000002   PAD
    0x0800095c   0x0800095c   0x00000030   Code   RO         6313    .text               mf_w.l(cdrcmple.o)
    0x0800098c   0x0800098c   0x00000038   Code   RO         6315    .text               mf_w.l(d2f.o)
    0x080009c4   0x080009c4   0x00000014   Code   RO         6317    .text               mf_w.l(cfcmple.o)
    0x080009d8   0x080009d8   0x00000014   Code   RO         6319    .text               mf_w.l(cfrcmple.o)
    0x080009ec   0x080009ec   0x0000002c   Code   RO         6362    .text               mc_w.l(uidiv.o)
    0x08000a18   0x08000a18   0x00000062   Code   RO         6364    .text               mc_w.l(uldiv.o)
    0x08000a7a   0x08000a7a   0x0000001e   Code   RO         6366    .text               mc_w.l(llshl.o)
    0x08000a98   0x08000a98   0x00000020   Code   RO         6368    .text               mc_w.l(llushr.o)
    0x08000ab8   0x08000ab8   0x00000024   Code   RO         6370    .text               mc_w.l(llsshr.o)
    0x08000adc   0x08000adc   0x00000028   Code   RO         6379    .text               mc_w.l(scanf_char.o)
    0x08000b04   0x08000b04   0x00000040   Code   RO         6381    .text               mc_w.l(_sgetc.o)
    0x08000b44   0x08000b44   0x00000000   Code   RO         6383    .text               mc_w.l(iusefp.o)
    0x08000b44   0x08000b44   0x0000006e   Code   RO         6384    .text               mf_w.l(fepilogue.o)
    0x08000bb2   0x08000bb2   0x000000ba   Code   RO         6386    .text               mf_w.l(depilogue.o)
    0x08000c6c   0x08000c6c   0x0000002e   Code   RO         6388    .text               mf_w.l(dscalb.o)
    0x08000c9a   0x08000c9a   0x00000022   Code   RO         6390    .text               mf_w.l(dflti.o)
    0x08000cbc   0x08000cbc   0x00000030   Code   RO         6392    .text               mf_w.l(dfixul.o)
    0x08000cec   0x08000cec   0x00000024   Code   RO         6394    .text               mc_w.l(init.o)
    0x08000d10   0x08000d10   0x0000000a   Code   RO         6396    .text               mc_w.l(isspace_c.o)
    0x08000d1a   0x08000d1a   0x00000002   PAD
    0x08000d1c   0x08000d1c   0x0000032c   Code   RO         6398    .text               mc_w.l(_scanf.o)
    0x08001048   0x08001048   0x000000a2   Code   RO         6400    .text               mf_w.l(dsqrt.o)
    0x080010ea   0x080010ea   0x00000002   PAD
    0x080010ec   0x080010ec   0x00000028   Code   RO         6402    .text               mc_w.l(ctype_c.o)
    0x08001114   0x08001114   0x00000056   Code   RO         6413    .text               mc_w.l(__dczerorl2.o)
    0x0800116a   0x0800116a   0x0000000e   Code   RO         3898    i.$Sub$$main        components.o
    0x08001178   0x08001178   0x00000006   Code   RO          181    i.ADC_ClearFlag     stm32f10x_adc.o
    0x0800117e   0x0800117e   0x00000016   Code   RO          183    i.ADC_Cmd           stm32f10x_adc.o
    0x08001194   0x08001194   0x0000005c   Code   RO          185    i.ADC_DeInit        stm32f10x_adc.o
    0x080011f0   0x080011f0   0x00000014   Code   RO          191    i.ADC_GetCalibrationStatus  stm32f10x_adc.o
    0x08001204   0x08001204   0x00000008   Code   RO          192    i.ADC_GetConversionValue  stm32f10x_adc.o
    0x0800120c   0x0800120c   0x00000012   Code   RO          194    i.ADC_GetFlagStatus  stm32f10x_adc.o
    0x0800121e   0x0800121e   0x00000014   Code   RO          197    i.ADC_GetResetCalibrationStatus  stm32f10x_adc.o
    0x08001232   0x08001232   0x00000002   PAD
    0x08001234   0x08001234   0x00000050   Code   RO          201    i.ADC_Init          stm32f10x_adc.o
    0x08001284   0x08001284   0x000000b8   Code   RO          205    i.ADC_RegularChannelConfig  stm32f10x_adc.o
    0x0800133c   0x0800133c   0x0000000a   Code   RO          206    i.ADC_ResetCalibration  stm32f10x_adc.o
    0x08001346   0x08001346   0x00000016   Code   RO          208    i.ADC_SoftwareStartConvCmd  stm32f10x_adc.o
    0x0800135c   0x0800135c   0x0000000a   Code   RO          210    i.ADC_StartCalibration  stm32f10x_adc.o
    0x08001366   0x08001366   0x00000004   Code   RO         3558    i.BusFault_Handler  stm32f10x_it.o
    0x0800136a   0x0800136a   0x00000026   Code   RO         3619    i.Calculate_SGP30   deal_with.o
    0x08001390   0x08001390   0x000000f4   Code   RO         3620    i.Calculate_SHT30   deal_with.o
    0x08001484   0x08001484   0x00000030   Code   RO         5893    i.Clear_Buffer      usart2.o
    0x080014b4   0x080014b4   0x00000028   Code   RO         5894    i.Clear_Buffer_separate  usart2.o
    0x080014dc   0x080014dc   0x0000006c   Code   RO         5152    i.Collect_data      gp2y10_adc.o
    0x08001548   0x08001548   0x000000a4   Code   RO         5201    i.DataGet_LD2410C   hlk_ld2410c.o
    0x080015ec   0x080015ec   0x000000b8   Code   RO         5223    i.Dealwith_HLK_TX510  hlk_tx510.o
    0x080016a4   0x080016a4   0x00000002   Code   RO         3559    i.DebugMon_Handler  stm32f10x_it.o
    0x080016a6   0x080016a6   0x00000002   PAD
    0x080016a8   0x080016a8   0x0000001c   Code   RO         3560    i.EXTI0_IRQHandler  stm32f10x_it.o
    0x080016c4   0x080016c4   0x00000020   Code   RO         3561    i.EXTI15_10_IRQHandler  stm32f10x_it.o
    0x080016e4   0x080016e4   0x0000000c   Code   RO          939    i.EXTI_ClearITPendingBit  stm32f10x_exti.o
    0x080016f0   0x080016f0   0x00000028   Code   RO          943    i.EXTI_GetITStatus  stm32f10x_exti.o
    0x08001718   0x08001718   0x00000094   Code   RO          944    i.EXTI_Init         stm32f10x_exti.o
    0x080017ac   0x080017ac   0x00000094   Code   RO         3725    i.EXTI_Key_Config   key_exti.o
    0x08001840   0x08001840   0x0000005c   Code   RO         3621    i.Face_recognition_myself  deal_with.o
    0x0800189c   0x0800189c   0x0000000c   Code   RO         5130    i.GENERAL_TIM_Init  generaltim.o
    0x080018a8   0x080018a8   0x00000044   Code   RO         5131    i.GENERAL_TIM_Mode_Config  generaltim.o
    0x080018ec   0x080018ec   0x0000002a   Code   RO         5132    i.GENERAL_TIM_NVIC_Config  generaltim.o
    0x08001916   0x08001916   0x0000000c   Code   RO         5153    i.GP2Y_ADC_Init     gp2y10_adc.o
    0x08001922   0x08001922   0x00000002   PAD
    0x08001924   0x08001924   0x000000b0   Code   RO         5154    i.GP2Y_Convert      gp2y10_adc.o
    0x080019d4   0x080019d4   0x00000050   Code   RO         5155    i.GP2Y_GPIO_Config  gp2y10_adc.o
    0x08001a24   0x08001a24   0x0000002c   Code   RO         5156    i.GP2Y_GetDate      gp2y10_adc.o
    0x08001a50   0x08001a50   0x00000010   Code   RO         5157    i.GP2Y_GetDens      gp2y10_adc.o
    0x08001a60   0x08001a60   0x00000078   Code   RO         5158    i.GP2Y_Mode_Config  gp2y10_adc.o
    0x08001ad8   0x08001ad8   0x00000040   Code   RO         1289    i.GPIO_EXTILineConfig  stm32f10x_gpio.o
    0x08001b18   0x08001b18   0x00000116   Code   RO         1292    i.GPIO_Init         stm32f10x_gpio.o
    0x08001c2e   0x08001c2e   0x00000012   Code   RO         1296    i.GPIO_ReadInputDataBit  stm32f10x_gpio.o
    0x08001c40   0x08001c40   0x00000004   Code   RO         1299    i.GPIO_ResetBits    stm32f10x_gpio.o
    0x08001c44   0x08001c44   0x00000004   Code   RO         1300    i.GPIO_SetBits      stm32f10x_gpio.o
    0x08001c48   0x08001c48   0x00000034   Code   RO         5440    i.Get_MQ2_ADC       mq2_adc.o
    0x08001c7c   0x08001c7c   0x0000002e   Code   RO         5441    i.Get_MQ2_ADC_Average  mq2_adc.o
    0x08001caa   0x08001caa   0x00000002   PAD
    0x08001cac   0x08001cac   0x00000054   Code   RO         3622    i.Getting_Data_myself  deal_with.o
    0x08001d00   0x08001d00   0x00000040   Code   RO         5224    i.HLK_TX510_ClearDate  hlk_tx510.o
    0x08001d40   0x08001d40   0x0000002c   Code   RO         5225    i.HLK_TX510_DeleteAll_FaceID  hlk_tx510.o
    0x08001d6c   0x08001d6c   0x0000002c   Code   RO         5227    i.HLK_TX510_Enroll_FaceID  hlk_tx510.o
    0x08001d98   0x08001d98   0x0000002c   Code   RO         5228    i.HLK_TX510_Identify_FaceID  hlk_tx510.o
    0x08001dc4   0x08001dc4   0x000000d8   Code   RO         5229    i.HLK_TX510_Receive_Byte  hlk_tx510.o
    0x08001e9c   0x08001e9c   0x0000001c   Code   RO         5231    i.HLK_TX510_Send_DeleteAllCmd  hlk_tx510.o
    0x08001eb8   0x08001eb8   0x0000001c   Code   RO         5233    i.HLK_TX510_Send_FaceCmd  hlk_tx510.o
    0x08001ed4   0x08001ed4   0x00000044   Code   RO         5723    i.IIC_ACK           sht30.o
    0x08001f18   0x08001f18   0x00000044   Code   RO         5724    i.IIC_NACK          sht30.o
    0x08001f5c   0x08001f5c   0x00000058   Code   RO         5725    i.IIC_RcvByte       sht30.o
    0x08001fb4   0x08001fb4   0x00000060   Code   RO         5726    i.IIC_SendByte      sht30.o
    0x08002014   0x08002014   0x00000038   Code   RO         5727    i.IIC_Start         sht30.o
    0x0800204c   0x0800204c   0x00000028   Code   RO         5481    i.IIC_Start_oled    oled.o
    0x08002074   0x08002074   0x0000003c   Code   RO         5728    i.IIC_Stop          sht30.o
    0x080020b0   0x080020b0   0x00000020   Code   RO         5482    i.IIC_Stop_oled     oled.o
    0x080020d0   0x080020d0   0x00000018   Code   RO         5483    i.IIC_Wait_Ack_oled  oled.o
    0x080020e8   0x080020e8   0x00000080   Code   RO         5729    i.IIC_wait_ACK      sht30.o
    0x08002168   0x08002168   0x00000010   Code   RO         1604    i.IWDG_Enable       stm32f10x_iwdg.o
    0x08002178   0x08002178   0x00000008   Code   RO         3836    i.IWDG_Feed         wdg.o
    0x08002180   0x08002180   0x00000024   Code   RO         3837    i.IWDG_Init         wdg.o
    0x080021a4   0x080021a4   0x00000010   Code   RO         1606    i.IWDG_ReloadCounter  stm32f10x_iwdg.o
    0x080021b4   0x080021b4   0x0000000c   Code   RO         1607    i.IWDG_SetPrescaler  stm32f10x_iwdg.o
    0x080021c0   0x080021c0   0x0000000c   Code   RO         1608    i.IWDG_SetReload    stm32f10x_iwdg.o
    0x080021cc   0x080021cc   0x0000000c   Code   RO         1609    i.IWDG_WriteAccessCmd  stm32f10x_iwdg.o
    0x080021d8   0x080021d8   0x0000007c   Code   RO         3623    i.Init_myself       deal_with.o
    0x08002254   0x08002254   0x00000060   Code   RO         3742    i.LED_GPIO_Config   led_test.o
    0x080022b4   0x080022b4   0x000000ac   Code   RO         5335    i.ML302_Init        ml302.o
    0x08002360   0x08002360   0x0000021c   Code   RO         5337    i.ML302_Init_MQTT   ml302.o
    0x0800257c   0x0800257c   0x000001c8   Code   RO         5338    i.ML302_Init_call   ml302.o
    0x08002744   0x08002744   0x00000234   Code   RO         5339    i.ML302_Init_text   ml302.o
    0x08002978   0x08002978   0x00000118   Code   RO         5340    i.ML302_MQTTInit    ml302.o
    0x08002a90   0x08002a90   0x000000c4   Code   RO         5341    i.ML302_MQTTPUBMessage_STM32  ml302.o
    0x08002b54   0x08002b54   0x00000094   Code   RO         5342    i.ML302_MQTTPUBMessage_WeChat  ml302.o
    0x08002be8   0x08002be8   0x000000b4   Code   RO         5343    i.ML302_MQTTSUB     ml302.o
    0x08002c9c   0x08002c9c   0x00000708   Code   RO         5345    i.ML302_MQTT_RECData  ml302.o
    0x080033a4   0x080033a4   0x00000094   Code   RO         5442    i.MQ2_ADC_Init      mq2_adc.o
    0x08003438   0x08003438   0x00000114   Code   RO         5443    i.MQ2_GetPPM        mq2_adc.o
    0x0800354c   0x0800354c   0x00000004   Code   RO         3562    i.MemManage_Handler  stm32f10x_it.o
    0x08003550   0x08003550   0x00000002   Code   RO         3563    i.NMI_Handler       stm32f10x_it.o
    0x08003552   0x08003552   0x00000032   Code   RO         3726    i.NVIC_Configuration  key_exti.o
    0x08003584   0x08003584   0x00000026   Code   RO         5858    i.NVIC_Configuration  uart5.o
    0x080035aa   0x080035aa   0x00000002   PAD
    0x080035ac   0x080035ac   0x00000070   Code   RO          137    i.NVIC_Init         misc.o
    0x0800361c   0x0800361c   0x00000014   Code   RO          138    i.NVIC_PriorityGroupConfig  misc.o
    0x08003630   0x08003630   0x0000003e   Code   RO         5484    i.OLED_Clear        oled.o
    0x0800366e   0x0800366e   0x00000002   PAD
    0x08003670   0x08003670   0x00000114   Code   RO         5488    i.OLED_Init         oled.o
    0x08003784   0x08003784   0x00000028   Code   RO         5490    i.OLED_Set_Pos      oled.o
    0x080037ac   0x080037ac   0x000000a4   Code   RO         5492    i.OLED_ShowChar     oled.o
    0x08003850   0x08003850   0x00000088   Code   RO         5493    i.OLED_ShowNum      oled.o
    0x080038d8   0x080038d8   0x0000003a   Code   RO         5494    i.OLED_ShowString   oled.o
    0x08003912   0x08003912   0x00000120   Code   RO         5495    i.OLED_Showdecimal  oled.o
    0x08003a32   0x08003a32   0x00000018   Code   RO         5496    i.OLED_WR_Byte      oled.o
    0x08003a4a   0x08003a4a   0x00000002   PAD
    0x08003a4c   0x08003a4c   0x0000008c   Code   RO         3624    i.OSD_myself        deal_with.o
    0x08003ad8   0x08003ad8   0x00000018   Code   RO         1706    i.RCC_ADCCLKConfig  stm32f10x_rcc.o
    0x08003af0   0x08003af0   0x00000020   Code   RO         1708    i.RCC_APB1PeriphClockCmd  stm32f10x_rcc.o
    0x08003b10   0x08003b10   0x00000020   Code   RO         1709    i.RCC_APB1PeriphResetCmd  stm32f10x_rcc.o
    0x08003b30   0x08003b30   0x00000020   Code   RO         1710    i.RCC_APB2PeriphClockCmd  stm32f10x_rcc.o
    0x08003b50   0x08003b50   0x00000020   Code   RO         1711    i.RCC_APB2PeriphResetCmd  stm32f10x_rcc.o
    0x08003b70   0x08003b70   0x000000d4   Code   RO         1718    i.RCC_GetClocksFreq  stm32f10x_rcc.o
    0x08003c44   0x08003c44   0x00000024   Code   RO         5639    i.SDA_IN            sgp30.o
    0x08003c68   0x08003c68   0x00000024   Code   RO         5640    i.SDA_OUT           sgp30.o
    0x08003c8c   0x08003c8c   0x00000038   Code   RO         5641    i.SGP30_GPIO_Init   sgp30.o
    0x08003cc4   0x08003cc4   0x00000038   Code   RO         5642    i.SGP30_IIC_Ack     sgp30.o
    0x08003cfc   0x08003cfc   0x00000038   Code   RO         5643    i.SGP30_IIC_NAck    sgp30.o
    0x08003d34   0x08003d34   0x00000064   Code   RO         5644    i.SGP30_IIC_Read_Byte  sgp30.o
    0x08003d98   0x08003d98   0x00000064   Code   RO         5645    i.SGP30_IIC_Send_Byte  sgp30.o
    0x08003dfc   0x08003dfc   0x00000038   Code   RO         5646    i.SGP30_IIC_Start   sgp30.o
    0x08003e34   0x08003e34   0x00000034   Code   RO         5647    i.SGP30_IIC_Stop    sgp30.o
    0x08003e68   0x08003e68   0x00000058   Code   RO         5648    i.SGP30_IIC_Wait_Ack  sgp30.o
    0x08003ec0   0x08003ec0   0x00000010   Code   RO         5649    i.SGP30_Init        sgp30.o
    0x08003ed0   0x08003ed0   0x00000048   Code   RO         5650    i.SGP30_Read        sgp30.o
    0x08003f18   0x08003f18   0x00000034   Code   RO         5651    i.SGP30_Write       sgp30.o
    0x08003f4c   0x08003f4c   0x00000024   Code   RO         5730    i.SHT30_In          sht30.o
    0x08003f70   0x08003f70   0x00000040   Code   RO         5731    i.SHT30_Init        sht30.o
    0x08003fb0   0x08003fb0   0x00000024   Code   RO         5732    i.SHT30_Out         sht30.o
    0x08003fd4   0x08003fd4   0x000000ba   Code   RO         5733    i.SHT30_read_result  sht30.o
    0x0800408e   0x0800408e   0x00000002   Code   RO         3564    i.SVC_Handler       stm32f10x_it.o
    0x08004090   0x08004090   0x00000008   Code   RO           24    i.SetSysClock       system_stm32f10x.o
    0x08004098   0x08004098   0x000000e0   Code   RO           25    i.SetSysClockTo72   system_stm32f10x.o
    0x08004178   0x08004178   0x00000028   Code   RO          141    i.SysTick_CLKSourceConfig  misc.o
    0x080041a0   0x080041a0   0x00000010   Code   RO         3108    i.SysTick_Handler   board.o
    0x080041b0   0x080041b0   0x00000060   Code   RO           27    i.SystemInit        system_stm32f10x.o
    0x08004210   0x08004210   0x000000b4   Code   RO         3565    i.TIM2_IRQHandler   stm32f10x_it.o
    0x080042c4   0x080042c4   0x00000028   Code   RO         5801    i.TIM7_IRQHandler   timer_mq2.o
    0x080042ec   0x080042ec   0x00000060   Code   RO         5802    i.TIM7_Init         timer_mq2.o
    0x0800434c   0x0800434c   0x00000006   Code   RO         2336    i.TIM_ClearFlag     stm32f10x_tim.o
    0x08004352   0x08004352   0x00000006   Code   RO         2337    i.TIM_ClearITPendingBit  stm32f10x_tim.o
    0x08004358   0x08004358   0x00000018   Code   RO         2342    i.TIM_Cmd           stm32f10x_tim.o
    0x08004370   0x08004370   0x00000022   Code   RO         2363    i.TIM_GetITStatus   stm32f10x_tim.o
    0x08004392   0x08004392   0x00000012   Code   RO         2367    i.TIM_ITConfig      stm32f10x_tim.o
    0x080043a4   0x080043a4   0x000000a4   Code   RO         2413    i.TIM_TimeBaseInit  stm32f10x_tim.o
    0x08004448   0x08004448   0x000000c8   Code   RO         5820    i.UART4_IRQHandler  uart4.o
    0x08004510   0x08004510   0x00000090   Code   RO         5859    i.UART5_Config      uart5.o
    0x080045a0   0x080045a0   0x00000048   Code   RO         5860    i.UART5_IRQHandler  uart5.o
    0x080045e8   0x080045e8   0x00000090   Code   RO         5094    i.USART1_IRQHandler  usart.o
    0x08004678   0x08004678   0x00000044   Code   RO         5896    i.USART2_IRQHandler  usart2.o
    0x080046bc   0x080046bc   0x00000054   Code   RO         5955    i.USART3_Configuration  usart3.o
    0x08004710   0x08004710   0x0000003c   Code   RO         5956    i.USART3_GPIO_Configuration  usart3.o
    0x0800474c   0x0800474c   0x00000054   Code   RO         5957    i.USART3_IRQHandler  usart3.o
    0x080047a0   0x080047a0   0x00000018   Code   RO         5958    i.USART3_Init       usart3.o
    0x080047b8   0x080047b8   0x00000028   Code   RO         5959    i.USART3_NVIC_Configuration  usart3.o
    0x080047e0   0x080047e0   0x00000014   Code   RO         5960    i.USART3_RCC_Configuration  usart3.o
    0x080047f4   0x080047f4   0x00000020   Code   RO         5961    i.USART3_SendByte   usart3.o
    0x08004814   0x08004814   0x00000018   Code   RO         2878    i.USART_Cmd         stm32f10x_usart.o
    0x0800482c   0x0800482c   0x0000009c   Code   RO         2880    i.USART_DeInit      stm32f10x_usart.o
    0x080048c8   0x080048c8   0x0000001a   Code   RO         2881    i.USART_GetFlagStatus  stm32f10x_usart.o
    0x080048e2   0x080048e2   0x00000054   Code   RO         2882    i.USART_GetITStatus  stm32f10x_usart.o
    0x08004936   0x08004936   0x0000004a   Code   RO         2884    i.USART_ITConfig    stm32f10x_usart.o
    0x08004980   0x08004980   0x000000d8   Code   RO         2885    i.USART_Init        stm32f10x_usart.o
    0x08004a58   0x08004a58   0x0000000a   Code   RO         2892    i.USART_ReceiveData  stm32f10x_usart.o
    0x08004a62   0x08004a62   0x00000008   Code   RO         2895    i.USART_SendData    stm32f10x_usart.o
    0x08004a6a   0x08004a6a   0x00000002   PAD
    0x08004a6c   0x08004a6c   0x00000028   Code   RO         5095    i.Uart1_SendStr     usart.o
    0x08004a94   0x08004a94   0x0000005c   Code   RO         3625    i.Upload_Receive_Data_STM32  deal_with.o
    0x08004af0   0x08004af0   0x00000064   Code   RO         3626    i.Upload_Receive_Data_wechat  deal_with.o
    0x08004b54   0x08004b54   0x00000004   Code   RO         3566    i.UsageFault_Handler  stm32f10x_it.o
    0x08004b58   0x08004b58   0x00000054   Code   RO         5497    i.Write_IIC_Byte    oled.o
    0x08004bac   0x08004bac   0x0000002c   Code   RO         5498    i.Write_IIC_Command  oled.o
    0x08004bd8   0x08004bd8   0x0000002c   Code   RO         5499    i.Write_IIC_Data    oled.o
    0x08004c04   0x08004c04   0x00000020   Code   RO         6257    i.__0printf         mc_w.l(printfa.o)
    0x08004c24   0x08004c24   0x0000002c   Code   RO         6262    i.__0vsnprintf      mc_w.l(printfa.o)
    0x08004c50   0x08004c50   0x00000028   Code   RO         6335    i.__ARM_fpclassify  m_ws.l(fpclassify.o)
    0x08004c78   0x08004c78   0x000000aa   Code   RO         6337    i.__kernel_poly     m_ws.l(poly.o)
    0x08004d22   0x08004d22   0x00000002   PAD
    0x08004d24   0x08004d24   0x00000010   Code   RO         6321    i.__mathlib_dbl_divzero  m_ws.l(dunder.o)
    0x08004d34   0x08004d34   0x00000004   Code   RO         6323    i.__mathlib_dbl_infnan2  m_ws.l(dunder.o)
    0x08004d38   0x08004d38   0x0000000c   Code   RO         6324    i.__mathlib_dbl_invalid  m_ws.l(dunder.o)
    0x08004d44   0x08004d44   0x0000000e   Code   RO         6325    i.__mathlib_dbl_overflow  m_ws.l(dunder.o)
    0x08004d52   0x08004d52   0x00000002   PAD
    0x08004d54   0x08004d54   0x00000010   Code   RO         6327    i.__mathlib_dbl_underflow  m_ws.l(dunder.o)
    0x08004d64   0x08004d64   0x0000004c   Code   RO         4311    i.__rt_ffs          kservice.o
    0x08004db0   0x08004db0   0x0000000e   Code   RO         6407    i.__scatterload_copy  mc_w.l(handlers.o)
    0x08004dbe   0x08004dbe   0x00000002   Code   RO         6408    i.__scatterload_null  mc_w.l(handlers.o)
    0x08004dc0   0x08004dc0   0x0000000e   Code   RO         6409    i.__scatterload_zeroinit  mc_w.l(handlers.o)
    0x08004dce   0x08004dce   0x00000002   PAD
    0x08004dd0   0x08004dd0   0x0000000c   Code   RO         6374    i.__set_errno       mc_w.l(errno.o)
    0x08004ddc   0x08004ddc   0x00000184   Code   RO         6264    i._fp_digits        mc_w.l(printfa.o)
    0x08004f60   0x08004f60   0x00000014   Code   RO         3972    i._has_defunct_thread  idle.o
    0x08004f74   0x08004f74   0x000006dc   Code   RO         6265    i._printf_core      mc_w.l(printfa.o)
    0x08005650   0x08005650   0x00000024   Code   RO         6266    i._printf_post_padding  mc_w.l(printfa.o)
    0x08005674   0x08005674   0x0000002e   Code   RO         6267    i._printf_pre_padding  mc_w.l(printfa.o)
    0x080056a2   0x080056a2   0x00000002   PAD
    0x080056a4   0x080056a4   0x00000084   Code   RO         4754    i._rt_thread_init   thread.o
    0x08005728   0x08005728   0x00000042   Code   RO         4869    i._rt_timer_init    timer.o
    0x0800576a   0x0800576a   0x0000002e   Code   RO         4870    i._rt_timer_remove  timer.o
    0x08005798   0x08005798   0x00000016   Code   RO         6268    i._snputc           mc_w.l(printfa.o)
    0x080057ae   0x080057ae   0x00000002   PAD
    0x080057b0   0x080057b0   0x0000002c   Code   RO         3312    i.communication_thread_entry  main.o
    0x080057dc   0x080057dc   0x0000005c   Code   RO         3628    i.deal_with         deal_with.o
    0x08005838   0x08005838   0x00000054   Code   RO         5013    i.delay_init        delay.o
    0x0800588c   0x0800588c   0x00000050   Code   RO         5014    i.delay_ms          delay.o
    0x080058dc   0x080058dc   0x00000008   Code   RO         5015    i.delay_osschedlock  delay.o
    0x080058e4   0x080058e4   0x00000008   Code   RO         5016    i.delay_osschedunlock  delay.o
    0x080058ec   0x080058ec   0x0000000c   Code   RO         5017    i.delay_ostimedly   delay.o
    0x080058f8   0x080058f8   0x00000018   Code   RO         5018    i.delay_s           delay.o
    0x08005910   0x08005910   0x00000058   Code   RO         5019    i.delay_us          delay.o
    0x08005968   0x08005968   0x0000001c   Code   RO         5899    i.fputc             usart2.o
    0x08005984   0x08005984   0x00000154   Code   RO         3313    i.main              main.o
    0x08005ad8   0x08005ad8   0x0000000e   Code   RO         3899    i.main_thread_entry  components.o
    0x08005ae6   0x08005ae6   0x00000016   Code   RO         5501    i.oled_pow          oled.o
    0x08005afc   0x08005afc   0x00000024   Code   RO         5234    i.perform_DeleteAllFace  hlk_tx510.o
    0x08005b20   0x08005b20   0x00000024   Code   RO         5235    i.perform_DeleteFace  hlk_tx510.o
    0x08005b44   0x08005b44   0x00000024   Code   RO         5236    i.perform_EnrollFace  hlk_tx510.o
    0x08005b68   0x08005b68   0x00000024   Code   RO         5237    i.perform_IdentifyFace  hlk_tx510.o
    0x08005b8c   0x08005b8c   0x00000078   Code   RO         4492    i.plug_holes        mem.o
    0x08005c04   0x08005c04   0x000009d8   Code   RO         6000    i.pow               m_ws.l(pow.o)
    0x080065dc   0x080065dc   0x00000110   Code   RO         3629    i.printf_myself     deal_with.o
    0x080066ec   0x080066ec   0x0000001c   Code   RO         3314    i.recognition_thread_entry  main.o
    0x08006708   0x08006708   0x0000002c   Code   RO         3900    i.rt_application_init  components.o
    0x08006734   0x08006734   0x0000001c   Code   RO         3901    i.rt_components_board_init  components.o
    0x08006750   0x08006750   0x0000001c   Code   RO         3902    i.rt_components_init  components.o
    0x0800676c   0x0800676c   0x00000020   Code   RO         4673    i.rt_enter_critical  scheduler.o
    0x0800678c   0x0800678c   0x0000003c   Code   RO         4674    i.rt_exit_critical  scheduler.o
    0x080067c8   0x080067c8   0x000000e0   Code   RO         4494    i.rt_free           mem.o
    0x080068a8   0x080068a8   0x00000008   Code   RO         3109    i.rt_heap_begin_get  board.o
    0x080068b0   0x080068b0   0x00000008   Code   RO         3110    i.rt_heap_end_get   board.o
    0x080068b8   0x080068b8   0x0000007c   Code   RO         3111    i.rt_hw_board_init  board.o
    0x08006934   0x08006934   0x00000050   Code   RO         3112    i.rt_hw_console_output  board.o
    0x08006984   0x08006984   0x00000200   Code   RO         4978    i.rt_hw_hard_fault_exception  cpuport.o
    0x08006b84   0x08006b84   0x0000004c   Code   RO         4979    i.rt_hw_stack_init  cpuport.o
    0x08006bd0   0x08006bd0   0x00000020   Code   RO         4284    i.rt_interrupt_enter  irq.o
    0x08006bf0   0x08006bf0   0x00000020   Code   RO         4286    i.rt_interrupt_leave  irq.o
    0x08006c10   0x08006c10   0x00000014   Code   RO         4019    i.rt_ipc_list_resume  ipc.o
    0x08006c24   0x08006c24   0x0000006c   Code   RO         4021    i.rt_ipc_list_suspend  ipc.o
    0x08006c90   0x08006c90   0x00000010   Code   RO         4022    i.rt_ipc_object_init  ipc.o
    0x08006ca0   0x08006ca0   0x00000030   Code   RO         4317    i.rt_kprintf        kservice.o
    0x08006cd0   0x08006cd0   0x00000006   Code   RO         4023    i.rt_list_init      ipc.o
    0x08006cd6   0x08006cd6   0x00000006   Code   RO         4675    i.rt_list_init      scheduler.o
    0x08006cdc   0x08006cdc   0x00000006   Code   RO         4871    i.rt_list_init      timer.o
    0x08006ce2   0x08006ce2   0x0000000e   Code   RO         4603    i.rt_list_insert_after  object.o
    0x08006cf0   0x08006cf0   0x0000000e   Code   RO         4755    i.rt_list_insert_after  thread.o
    0x08006cfe   0x08006cfe   0x0000000e   Code   RO         4872    i.rt_list_insert_after  timer.o
    0x08006d0c   0x08006d0c   0x0000000e   Code   RO         4024    i.rt_list_insert_before  ipc.o
    0x08006d1a   0x08006d1a   0x00000010   Code   RO         4025    i.rt_list_isempty   ipc.o
    0x08006d2a   0x08006d2a   0x00000010   Code   RO         4873    i.rt_list_isempty   timer.o
    0x08006d3a   0x08006d3a   0x00000012   Code   RO         4604    i.rt_list_remove    object.o
    0x08006d4c   0x08006d4c   0x00000012   Code   RO         4756    i.rt_list_remove    thread.o
    0x08006d5e   0x08006d5e   0x00000002   PAD
    0x08006d60   0x08006d60   0x0000016c   Code   RO         4495    i.rt_malloc         mem.o
    0x08006ecc   0x08006ecc   0x00000014   Code   RO         4323    i.rt_memset         kservice.o
    0x08006ee0   0x08006ee0   0x0000004a   Code   RO         4605    i.rt_object_allocate  object.o
    0x08006f2a   0x08006f2a   0x00000020   Code   RO         4606    i.rt_object_delete  object.o
    0x08006f4a   0x08006f4a   0x0000001a   Code   RO         4607    i.rt_object_detach  object.o
    0x08006f64   0x08006f64   0x00000028   Code   RO         4609    i.rt_object_get_information  object.o
    0x08006f8c   0x08006f8c   0x0000003c   Code   RO         4610    i.rt_object_init    object.o
    0x08006fc8   0x08006fc8   0x00000012   Code   RO         4611    i.rt_object_is_systemobject  object.o
    0x08006fda   0x08006fda   0x00000002   PAD
    0x08006fdc   0x08006fdc   0x00000090   Code   RO         4676    i.rt_schedule       scheduler.o
    0x0800706c   0x0800706c   0x00000050   Code   RO         4677    i.rt_schedule_insert_thread  scheduler.o
    0x080070bc   0x080070bc   0x00000054   Code   RO         4678    i.rt_schedule_remove_thread  scheduler.o
    0x08007110   0x08007110   0x0000002a   Code   RO         4050    i.rt_sem_create     ipc.o
    0x0800713a   0x0800713a   0x00000026   Code   RO         4053    i.rt_sem_init       ipc.o
    0x08007160   0x08007160   0x0000003a   Code   RO         4054    i.rt_sem_release    ipc.o
    0x0800719a   0x0800719a   0x00000074   Code   RO         4055    i.rt_sem_take       ipc.o
    0x0800720e   0x0800720e   0x00000002   PAD
    0x08007210   0x08007210   0x000000b0   Code   RO         4325    i.rt_show_version   kservice.o
    0x080072c0   0x080072c0   0x00000034   Code   RO         4333    i.rt_strncpy        kservice.o
    0x080072f4   0x080072f4   0x000000f8   Code   RO         4498    i.rt_system_heap_init  mem.o
    0x080073ec   0x080073ec   0x0000004c   Code   RO         4679    i.rt_system_scheduler_init  scheduler.o
    0x08007438   0x08007438   0x00000030   Code   RO         4680    i.rt_system_scheduler_start  scheduler.o
    0x08007468   0x08007468   0x0000001c   Code   RO         4874    i.rt_system_timer_init  timer.o
    0x08007484   0x08007484   0x00000002   Code   RO         4875    i.rt_system_timer_thread_init  timer.o
    0x08007486   0x08007486   0x00000050   Code   RO         4758    i.rt_thread_create  thread.o
    0x080074d6   0x080074d6   0x0000000c   Code   RO         4759    i.rt_thread_delay   thread.o
    0x080074e2   0x080074e2   0x00000002   PAD
    0x080074e4   0x080074e4   0x00000054   Code   RO         4762    i.rt_thread_exit    thread.o
    0x08007538   0x08007538   0x00000008   Code   RO         3973    i.rt_thread_idle_entry  idle.o
    0x08007540   0x08007540   0x00000084   Code   RO         3974    i.rt_thread_idle_excute  idle.o
    0x080075c4   0x080075c4   0x0000003c   Code   RO         3976    i.rt_thread_idle_init  idle.o
    0x08007600   0x08007600   0x00000034   Code   RO         4764    i.rt_thread_init    thread.o
    0x08007634   0x08007634   0x0000003c   Code   RO         4765    i.rt_thread_resume  thread.o
    0x08007670   0x08007670   0x0000000c   Code   RO         4766    i.rt_thread_self    thread.o
    0x0800767c   0x0800767c   0x00000044   Code   RO         4767    i.rt_thread_sleep   thread.o
    0x080076c0   0x080076c0   0x0000002c   Code   RO         4768    i.rt_thread_startup  thread.o
    0x080076ec   0x080076ec   0x00000044   Code   RO         4769    i.rt_thread_suspend  thread.o
    0x08007730   0x08007730   0x00000020   Code   RO         4770    i.rt_thread_timeout  thread.o
    0x08007750   0x08007750   0x00000064   Code   RO         4771    i.rt_thread_yield   thread.o
    0x080077b4   0x080077b4   0x0000000c   Code   RO         3856    i.rt_tick_get       clock.o
    0x080077c0   0x080077c0   0x00000030   Code   RO         3857    i.rt_tick_increase  clock.o
    0x080077f0   0x080077f0   0x0000007c   Code   RO         4876    i.rt_timer_check    timer.o
    0x0800786c   0x0800786c   0x00000038   Code   RO         4877    i.rt_timer_control  timer.o
    0x080078a4   0x080078a4   0x00000020   Code   RO         4880    i.rt_timer_detach   timer.o
    0x080078c4   0x080078c4   0x0000002e   Code   RO         4881    i.rt_timer_init     timer.o
    0x080078f2   0x080078f2   0x00000002   PAD
    0x080078f4   0x080078f4   0x000000f8   Code   RO         4884    i.rt_timer_start    timer.o
    0x080079ec   0x080079ec   0x00000030   Code   RO         4885    i.rt_timer_stop     timer.o
    0x08007a1c   0x08007a1c   0x00000004   Code   RO         3903    i.rti_board_end     components.o
    0x08007a20   0x08007a20   0x00000004   Code   RO         3904    i.rti_board_start   components.o
    0x08007a24   0x08007a24   0x00000004   Code   RO         3905    i.rti_end           components.o
    0x08007a28   0x08007a28   0x00000004   Code   RO         3906    i.rti_start         components.o
    0x08007a2c   0x08007a2c   0x0000002a   Code   RO         3907    i.rtthread_startup  components.o
    0x08007a56   0x08007a56   0x00000002   PAD
    0x08007a58   0x08007a58   0x00000024   Code   RO         3315    i.sensor_thread_entry  main.o
    0x08007a7c   0x08007a7c   0x0000004c   Code   RO         6341    i.sqrt              m_ws.l(sqrt.o)
    0x08007ac8   0x08007ac8   0x000000a8   Code   RO         5900    i.uart2_init        usart2.o
    0x08007b70   0x08007b70   0x000000c0   Code   RO         5822    i.uart4_init        uart4.o
    0x08007c30   0x08007c30   0x000000a0   Code   RO         5096    i.uart_init         usart.o
    0x08007cd0   0x08007cd0   0x00000122   Data   RO         4340    .constdata          kservice.o
    0x08007df2   0x08007df2   0x00000818   Data   RO         5503    .constdata          oled.o
    0x0800860a   0x0800860a   0x00000006   PAD
    0x08008610   0x08008610   0x00000088   Data   RO         6001    .constdata          m_ws.l(pow.o)
    0x08008698   0x08008698   0x00000008   Data   RO         6339    .constdata          m_ws.l(qnan.o)
    0x080086a0   0x080086a0   0x00000040   Data   RO         6403    .constdata          mc_w.l(ctype_c.o)
    0x080086e0   0x080086e0   0x00000504   Data   RO         5350    .conststring        ml302.o
    0x08008be4   0x08008be4   0x00000004   Data   RO         3908    .rti_fn.0           components.o
    0x08008be8   0x08008be8   0x00000004   Data   RO         3909    .rti_fn.0.end       components.o
    0x08008bec   0x08008bec   0x00000004   Data   RO         3910    .rti_fn.1.end       components.o
    0x08008bf0   0x08008bf0   0x00000004   Data   RO         3911    .rti_fn.6.end       components.o
    0x08008bf4   0x08008bf4   0x00000020   Data   RO         6405    Region$$Table       anon$$obj.o


    Execution Region RW_IRAM1 (Exec base: 0x20000000, Load base: 0x08008c14, Size: 0x00002700, Max: 0x00010000, ABSOLUTE, COMPRESSED[0x000000c0])

    Exec Addr    Load Addr    Size         Type   Attr      Idx    E Section Name        Object

    0x20000000   COMPRESSED   0x00000014   Data   RW           28    .data               system_stm32f10x.o
    0x20000014   COMPRESSED   0x00000014   Data   RW         1738    .data               stm32f10x_rcc.o
    0x20000028   COMPRESSED   0x00000018   Data   RW         3316    .data               main.o
    0x20000040   COMPRESSED   0x000000b9   Data   RW         3630    .data               deal_with.o
    0x200000f9   COMPRESSED   0x00000003   PAD
    0x200000fc   COMPRESSED   0x00000004   Data   RW         3859    .data               clock.o
    0x20000100   COMPRESSED   0x00000001   Data   RW         4287    .data               irq.o
    0x20000101   COMPRESSED   0x00000003   PAD
    0x20000104   COMPRESSED   0x00000018   Data   RW         4500    .data               mem.o
    0x2000011c   COMPRESSED   0x00000080   Data   RW         4613    .data               object.o
    0x2000019c   COMPRESSED   0x00000018   Data   RW         4682    .data               scheduler.o
    0x200001b4   COMPRESSED   0x0000000c   Data   RW         4886    .data               timer.o
    0x200001c0   COMPRESSED   0x00000010   Data   RW         4980    .data               cpuport.o
    0x200001d0   COMPRESSED   0x00000005   Data   RW         5020    .data               delay.o
    0x200001d5   COMPRESSED   0x00000001   PAD
    0x200001d6   COMPRESSED   0x00000002   Data   RW         5098    .data               usart.o
    0x200001d8   COMPRESSED   0x00000001   Data   RW         5160    .data               gp2y10_adc.o
    0x200001d9   COMPRESSED   0x00000084   Data   RW         5239    .data               hlk_tx510.o
    0x2000025d   COMPRESSED   0x00000003   PAD
    0x20000260   COMPRESSED   0x00000049   Data   RW         5351    .data               ml302.o
    0x200002a9   COMPRESSED   0x00000003   PAD
    0x200002ac   COMPRESSED   0x00000008   Data   RW         5445    .data               mq2_adc.o
    0x200002b4   COMPRESSED   0x00000001   Data   RW         5825    .data               uart4.o
    0x200002b5   COMPRESSED   0x00000003   PAD
    0x200002b8   COMPRESSED   0x00000006   Data   RW         5902    .data               usart2.o
    0x200002be   COMPRESSED   0x00000002   PAD
    0x200002c0   COMPRESSED   0x00000004   Data   RW         6375    .data               mc_w.l(errno.o)
    0x200002c4        -       0x00001000   Zero   RW         3113    .bss                board.o
    0x200012c4        -       0x00000180   Zero   RW         3977    .bss                idle.o
    0x20001444        -       0x00000080   Zero   RW         4339    .bss                kservice.o
    0x200014c4        -       0x00000020   Zero   RW         4499    .bss                mem.o
    0x200014e4        -       0x00000040   Zero   RW         4681    .bss                scheduler.o
    0x20001524        -       0x000000c8   Zero   RW         5097    .bss                usart.o
    0x200015ec        -       0x00000028   Zero   RW         5159    .bss                gp2y10_adc.o
    0x20001614        -       0x0000053c   Zero   RW         5202    .bss                hlk_ld2410c.o
    0x20001b50        -       0x0000006c   Zero   RW         5238    .bss                hlk_tx510.o
    0x20001bbc        -       0x00000016   Zero   RW         5349    .bss                ml302.o
    0x20001bd2   COMPRESSED   0x00000006   PAD
    0x20001bd8        -       0x00000668   Zero   RW         5824    .bss                uart4.o
    0x20002240        -       0x000000b9   Zero   RW         5901    .bss                usart2.o
    0x200022f9   COMPRESSED   0x00000007   PAD
    0x20002300        -       0x00000400   Zero   RW            1    STACK               startup_stm32f10x_hd.o



  Load Region LR$$.ARM.__AT_0x68000000 (Base: 0x68000000, Size: 0x00000000, Max: 0x000f0000, ABSOLUTE)

    Execution Region ER$$.ARM.__AT_0x68000000 (Exec base: 0x68000000, Load base: 0x68000000, Size: 0x000f0000, Max: 0x000f0000, ABSOLUTE, UNINIT)

    Exec Addr    Load Addr    Size         Type   Attr      Idx    E Section Name        Object

    0x68000000        -       0x000f0000   Zero   RW         3763    .ARM.__AT_0x68000000  malloc.o



  Load Region LR$$.ARM.__AT_0x680F0000 (Base: 0x680f0000, Size: 0x00000000, Max: 0x0000f000, ABSOLUTE)

    Execution Region ER$$.ARM.__AT_0x680F0000 (Exec base: 0x680f0000, Load base: 0x680f0000, Size: 0x0000f000, Max: 0x0000f000, ABSOLUTE, UNINIT)

    Exec Addr    Load Addr    Size         Type   Attr      Idx    E Section Name        Object

    0x680f0000        -       0x0000f000   Zero   RW         3764    .ARM.__AT_0x680F0000  malloc.o


==============================================================================

Image component sizes


      Code (inc. data)   RO Data    RW Data    ZI Data      Debug   Object Name

       236         28          0          0       4096      24301   board.o
        60         12          0          4          0       1113   clock.o
       186         28         16          0          0       5412   components.o
       240         26          0          0          0        764   context_rvds.o
         0          0          0          0          0       4508   core_cm3.o
       588        328          0         16          0       3102   cpuport.o
      1278        234          0        185          0       7359   deal_with.o
       304         26          0          5          0       3765   delay.o
       122          0          0          0          0       1371   generaltim.o
       556         54          0          1         40       4032   gp2y10_adc.o
       164         10          0          0       1340       1694   hlk_ld2410c.o
       796         84          0        132        108       9312   hlk_tx510.o
       220         30          0          0        384       4814   idle.o
       434          0          0          0          0       8101   ipc.o
        64         12          0          1          0       1474   irq.o
       198          8          0          0          0       1042   key_exti.o
       372        148        290          0        128       5169   kservice.o
        96          6          0          0          0        510   led_test.o
       448        154          0         24          0       7938   main.o
         0          0          0          0    1044480       1541   malloc.o
       956        224          0         24         32       3708   mem.o
       172         22          0          0          0       2177   misc.o
      4336       1088       1284         73         22       8586   ml302.o
       522         66          0          8          0       2544   mq2_adc.o
       282          4          0        128          0       7396   object.o
      1338         32       2072          0          0       9790   oled.o
       530         88          0         24         64       7566   scheduler.o
       776         86          0          0          0       6450   sgp30.o
       886         86          0          0          0       5840   sht30.o
        36          8        304          0       1024        852   startup_stm32f10x_hd.o
       492         24          0          0          0       9486   stm32f10x_adc.o
       200         18          0          0          0       2232   stm32f10x_exti.o
       368          4          0          0          0       4446   stm32f10x_gpio.o
       258         30          0          0          0       3915   stm32f10x_it.o
        68         30          0          0          0       2602   stm32f10x_iwdg.o
       364         50          0         20          0       6311   stm32f10x_rcc.o
       252         42          0          0          0       4286   stm32f10x_tim.o
       598         28          0          0          0       7036   stm32f10x_usart.o
       328         28          0         20          0     261981   system_stm32f10x.o
       776         36          0          0          0      10795   thread.o
       732         20          0         12          0      10096   timer.o
       136         12          0          0          0       1074   timer_mq2.o
       392         36          0          1       1640       1959   uart4.o
       254         20          0          0          0       1534   uart5.o
       344         28          0          2        200       2264   usart.o
       352         44          0          6        185       4389   usart2.o
       344         28          0          0          0       3220   usart3.o
        44          0          0          0          0        948   wdg.o

    ----------------------------------------------------------------------
     22526       3370       4004        704    1053756     490805   Object Totals
         0          0         32          0          0          0   (incl. Generated)
        28          0          6         18         13          0   (incl. Padding)

    ----------------------------------------------------------------------

      Code (inc. data)   RO Data    RW Data    ZI Data      Debug   Library Member Name

        62         10          0          0          0        340   dunder.o
        40          0          0          0          0         68   fpclassify.o
       170          0          0          0          0         96   poly.o
      2520        190        136          0          0        324   pow.o
         0          0          8          0          0          0   qnan.o
        76          0          0          0          0         84   sqrt.o
        56          8          0          0          0         84   __0sscanf.o
        86          0          0          0          0          0   __dczerorl2.o
       812          4          0          0          0        112   _scanf.o
       224          0          0          0          0         96   _scanf_str.o
        64          0          0          0          0         84   _sgetc.o
        40          6         64          0          0         68   ctype_c.o
         0          0          0          0          0          0   entry.o
         0          0          0          0          0          0   entry10a.o
         0          0          0          0          0          0   entry11a.o
         8          4          0          0          0          0   entry2.o
         4          0          0          0          0          0   entry5.o
         0          0          0          0          0          0   entry7b.o
         0          0          0          0          0          0   entry8b.o
         8          4          0          0          0          0   entry9a.o
        12          6          0          4          0         68   errno.o
        30          0          0          0          0          0   handlers.o
        36          8          0          0          0         68   init.o
        10          0          0          0          0         68   isspace_c.o
         0          0          0          0          0          0   iusefp.o
        30          0          0          0          0         68   llshl.o
        36          0          0          0          0         68   llsshr.o
        32          0          0          0          0         68   llushr.o
        36          0          0          0          0         68   memcpya.o
        36          0          0          0          0        108   memseta.o
      2324         94          0          0          0        600   printfa.o
        40          8          0          0          0         84   scanf_char.o
        28          0          0          0          0         76   strcmp.o
        14          0          0          0          0         68   strlen.o
        36          0          0          0          0         80   strstr.o
        44          0          0          0          0         80   uidiv.o
        98          0          0          0          0         92   uldiv.o
        48          0          0          0          0         68   cdrcmple.o
        20          0          0          0          0         68   cfcmple.o
        20          0          0          0          0         68   cfrcmple.o
        56          0          0          0          0         88   d2f.o
       334          0          0          0          0        148   dadd.o
       222          0          0          0          0        100   ddiv.o
       186          0          0          0          0        176   depilogue.o
        62          0          0          0          0         80   dfixi.o
        48          0          0          0          0         68   dfixul.o
        34          0          0          0          0         76   dflti.o
       228          0          0          0          0         96   dmul.o
        46          0          0          0          0         80   dscalb.o
       162          0          0          0          0        100   dsqrt.o
        38          0          0          0          0         68   f2d.o
       176          0          0          0          0        140   fadd.o
       124          0          0          0          0         88   fdiv.o
       110          0          0          0          0        168   fepilogue.o
        50          0          0          0          0         68   ffixi.o
        18          0          0          0          0         68   fflti.o
        10          0          0          0          0         68   ffltui.o
       100          0          0          0          0         76   fmul.o

    ----------------------------------------------------------------------
      9122        342        208          4          0       4980   Library Totals
        18          0          0          0          0          0   (incl. Padding)

    ----------------------------------------------------------------------

      Code (inc. data)   RO Data    RW Data    ZI Data      Debug   Library Name

      2868        200        144          0          0        912   m_ws.l
      4144        142         64          4          0       2108   mc_w.l
      2092          0          0          0          0       1960   mf_w.l

    ----------------------------------------------------------------------
      9122        342        208          4          0       4980   Library Totals

    ----------------------------------------------------------------------

==============================================================================


      Code (inc. data)   RO Data    RW Data    ZI Data      Debug   

     31648       3712       4212        708    1053756     479377   Grand Totals
     31648       3712       4212        192    1053756     479377   ELF Image Totals (compressed)
     31648       3712       4212        192          0          0   ROM Totals

==============================================================================

    Total RO  Size (Code + RO Data)                35860 (  35.02kB)
    Total RW  Size (RW Data + ZI Data)           1054464 (1029.75kB)
    Total ROM Size (Code + RO Data + RW Data)      36052 (  35.21kB)

==============================================================================

